
_Intuart:

;Master.c,86 :: 		void Intuart(){
;Master.c,88 :: 		RC1IE_bit = 1;
	BSF         RC1IE_bit+0, BitPos(RC1IE_bit+0) 
;Master.c,89 :: 		RC2IE_bit = 1;
	BSF         RC2IE_bit+0, BitPos(RC2IE_bit+0) 
;Master.c,91 :: 		TX2IE_bit = 0;
	BCF         TX2IE_bit+0, BitPos(TX2IE_bit+0) 
;Master.c,92 :: 		INTCON.PEIE = 1;
	BSF         INTCON+0, 6 
;Master.c,93 :: 		INTCON.GIE = 1;
	BSF         INTCON+0, 7 
;Master.c,94 :: 		T1CON         = 0x21;
	MOVLW       33
	MOVWF       T1CON+0 
;Master.c,95 :: 		TMR1IF_bit         = 0;
	BCF         TMR1IF_bit+0, BitPos(TMR1IF_bit+0) 
;Master.c,96 :: 		TMR1H         = 0x3C;
	MOVLW       60
	MOVWF       TMR1H+0 
;Master.c,97 :: 		TMR1L         = 0xB0;
	MOVLW       176
	MOVWF       TMR1L+0 
;Master.c,98 :: 		TMR1IE_bit         = 1;
	BSF         TMR1IE_bit+0, BitPos(TMR1IE_bit+0) 
;Master.c,99 :: 		cnt =   0;
	CLRF        _cnt+0 
;Master.c,100 :: 		INTCON         = 0xC0;
	MOVLW       192
	MOVWF       INTCON+0 
;Master.c,101 :: 		}
L_end_Intuart:
	RETURN      0
; end of _Intuart

_main:

;Master.c,102 :: 		void main(void)
;Master.c,105 :: 		OSCCON=0x72;
	MOVLW       114
	MOVWF       OSCCON+0 
;Master.c,106 :: 		ANSELA=0;
	CLRF        ANSELA+0 
;Master.c,107 :: 		ANSELB=0;
	CLRF        ANSELB+0 
;Master.c,108 :: 		ANSELC=0;
	CLRF        ANSELC+0 
;Master.c,109 :: 		buffer_pointer = 0;
	CLRF        _buffer_pointer+0 
	CLRF        _buffer_pointer+1 
;Master.c,110 :: 		memset(message_received, 0, 60);
	MOVLW       _message_received+0
	MOVWF       FARG_memset_p1+0 
	MOVLW       hi_addr(_message_received+0)
	MOVWF       FARG_memset_p1+1 
	CLRF        FARG_memset_character+0 
	MOVLW       60
	MOVWF       FARG_memset_n+0 
	MOVLW       0
	MOVWF       FARG_memset_n+1 
	CALL        _memset+0, 0
;Master.c,112 :: 		Relay1 = 0;
	BCF         LATA5_bit+0, BitPos(LATA5_bit+0) 
;Master.c,113 :: 		Relay2 = 0;
	BCF         LATA4_bit+0, BitPos(LATA4_bit+0) 
;Master.c,115 :: 		Relay1_Direction = 0;
	BCF         TRISA5_bit+0, BitPos(TRISA5_bit+0) 
;Master.c,116 :: 		Relay2_Direction = 0;
	BCF         TRISA4_bit+0, BitPos(TRISA4_bit+0) 
;Master.c,118 :: 		Digital_IN1_Direction = 1;
	BSF         TRISA3_bit+0, BitPos(TRISA3_bit+0) 
;Master.c,119 :: 		Digital_IN2_Direction = 1;
	BSF         TRISA2_bit+0, BitPos(TRISA2_bit+0) 
;Master.c,121 :: 		Digital_IN1=0;
	BCF         LATA3_bit+0, BitPos(LATA3_bit+0) 
;Master.c,122 :: 		Digital_IN2=0;
	BCF         LATA2_bit+0, BitPos(LATA2_bit+0) 
;Master.c,124 :: 		UART1_Init(9600);
	BSF         BAUDCON+0, 3, 0
	MOVLW       1
	MOVWF       SPBRGH+0 
	MOVLW       160
	MOVWF       SPBRG+0 
	BSF         TXSTA+0, 2, 0
	CALL        _UART1_Init+0, 0
;Master.c,125 :: 		UARt2_Init(14400);
	BSF         BAUDCON2+0, 3, 0
	MOVLW       1
	MOVWF       SPBRGH2+0 
	MOVLW       21
	MOVWF       SPBRG2+0 
	BSF         TXSTA2+0, 2, 0
	CALL        _UART2_Init+0, 0
;Master.c,126 :: 		Delay_ms(100);
	MOVLW       3
	MOVWF       R11, 0
	MOVLW       8
	MOVWF       R12, 0
	MOVLW       119
	MOVWF       R13, 0
L_main0:
	DECFSZ      R13, 1, 1
	BRA         L_main0
	DECFSZ      R12, 1, 1
	BRA         L_main0
	DECFSZ      R11, 1, 1
	BRA         L_main0
;Master.c,127 :: 		RS485Master_Init();
	CALL        _RS485Master_Init+0, 0
;Master.c,128 :: 		dat[0] = 0;//0b00100000;
	CLRF        _dat+0 
;Master.c,129 :: 		dat[1] = 0;
	CLRF        _dat+1 
;Master.c,130 :: 		dat[2] = 0;
	CLRF        _dat+2 
;Master.c,131 :: 		dat[4] = 0;
	CLRF        _dat+4 
;Master.c,132 :: 		dat[5] = 0;
	CLRF        _dat+5 
;Master.c,133 :: 		dat[6] = 0;
	CLRF        _dat+6 
;Master.c,135 :: 		Intuart();
	CALL        _Intuart+0, 0
;Master.c,136 :: 		dat[4] = 0;
	CLRF        _dat+4 
;Master.c,137 :: 		dat[5] = 0;
	CLRF        _dat+5 
;Master.c,138 :: 		Display_Init();
	CALL        _Display_Init+0, 0
;Master.c,139 :: 		Lcd_Cmd(_LCD_CLEAR);
	MOVLW       1
	MOVWF       FARG_Lcd_Cmd_out_char+0 
	CALL        _Lcd_Cmd+0, 0
;Master.c,140 :: 		Lcd_Cmd(_LCD_CURSOR_OFF);
	MOVLW       12
	MOVWF       FARG_Lcd_Cmd_out_char+0 
	CALL        _Lcd_Cmd+0, 0
;Master.c,141 :: 		Delay_ms(12000); // doi khoi dong module sim
	MOVLW       244
	MOVWF       R11, 0
	MOVLW       130
	MOVWF       R12, 0
	MOVLW       5
	MOVWF       R13, 0
L_main1:
	DECFSZ      R13, 1, 1
	BRA         L_main1
	DECFSZ      R12, 1, 1
	BRA         L_main1
	DECFSZ      R11, 1, 1
	BRA         L_main1
;Master.c,142 :: 		GSM_Begin();
	CALL        _GSM_Begin+0, 0
;Master.c,143 :: 		Lcd_Cmd(_LCD_CLEAR);
	MOVLW       1
	MOVWF       FARG_Lcd_Cmd_out_char+0 
	CALL        _Lcd_Cmd+0, 0
;Master.c,144 :: 		while(1)
L_main2:
;Master.c,147 :: 		if(cnt>=30){
	MOVLW       30
	SUBWF       _cnt+0, 0 
	BTFSS       STATUS+0, 0 
	GOTO        L_main4
;Master.c,148 :: 		temp();
	CALL        _temp+0, 0
;Master.c,149 :: 		cnt=0;
	CLRF        _cnt+0 
;Master.c,150 :: 		}
L_main4:
;Master.c,151 :: 		re_485();
	CALL        _re_485+0, 0
;Master.c,152 :: 		RS485Master_Send(dat,3,1);
	MOVLW       _dat+0
	MOVWF       FARG_RS485Master_Send_data_buffer+0 
	MOVLW       hi_addr(_dat+0)
	MOVWF       FARG_RS485Master_Send_data_buffer+1 
	MOVLW       3
	MOVWF       FARG_RS485Master_Send_datalen+0 
	MOVLW       1
	MOVWF       FARG_RS485Master_Send_slave_address+0 
	CALL        _RS485Master_Send+0, 0
;Master.c,153 :: 		if(status_flag==1){
	MOVF        _status_flag+0, 0 
	XORLW       1
	BTFSS       STATUS+0, 2 
	GOTO        L_main5
;Master.c,154 :: 		is_msg_arrived = GSM_Wait_for_Msg();
	CALL        _GSM_Wait_for_Msg+0, 0
	MOVF        R0, 0 
	MOVWF       main_is_msg_arrived_L0+0 
	MOVLW       0
	MOVWF       main_is_msg_arrived_L0+1 
;Master.c,155 :: 		if(is_msg_arrived== true)
	MOVLW       0
	XORWF       main_is_msg_arrived_L0+1, 0 
	BTFSS       STATUS+0, 2 
	GOTO        L__main147
	MOVLW       1
	XORWF       main_is_msg_arrived_L0+0, 0 
L__main147:
	BTFSS       STATUS+0, 2 
	GOTO        L_main6
;Master.c,156 :: 		{   Lcd_Out(1,16,"msg:1");
	MOVLW       1
	MOVWF       FARG_Lcd_Out_row+0 
	MOVLW       16
	MOVWF       FARG_Lcd_Out_column+0 
	MOVLW       ?lstr1_Master+0
	MOVWF       FARG_Lcd_Out_text+0 
	MOVLW       hi_addr(?lstr1_Master+0)
	MOVWF       FARG_Lcd_Out_text+1 
	CALL        _Lcd_Out+0, 0
;Master.c,157 :: 		delay_ms(1000);
	MOVLW       21
	MOVWF       R11, 0
	MOVLW       75
	MOVWF       R12, 0
	MOVLW       190
	MOVWF       R13, 0
L_main7:
	DECFSZ      R13, 1, 1
	BRA         L_main7
	DECFSZ      R12, 1, 1
	BRA         L_main7
	DECFSZ      R11, 1, 1
	BRA         L_main7
	NOP
;Master.c,158 :: 		Lcd_Cmd(_LCD_CLEAR);
	MOVLW       1
	MOVWF       FARG_Lcd_Cmd_out_char+0 
	CALL        _Lcd_Cmd+0, 0
;Master.c,159 :: 		Lcd_Out(1,1,"New message");
	MOVLW       1
	MOVWF       FARG_Lcd_Out_row+0 
	MOVLW       1
	MOVWF       FARG_Lcd_Out_column+0 
	MOVLW       ?lstr2_Master+0
	MOVWF       FARG_Lcd_Out_text+0 
	MOVLW       hi_addr(?lstr2_Master+0)
	MOVWF       FARG_Lcd_Out_text+1 
	CALL        _Lcd_Out+0, 0
;Master.c,160 :: 		Delay_ms(1000);
	MOVLW       21
	MOVWF       R11, 0
	MOVLW       75
	MOVWF       R12, 0
	MOVLW       190
	MOVWF       R13, 0
L_main8:
	DECFSZ      R13, 1, 1
	BRA         L_main8
	DECFSZ      R12, 1, 1
	BRA         L_main8
	DECFSZ      R11, 1, 1
	BRA         L_main8
	NOP
;Master.c,161 :: 		Lcd_Cmd(_LCD_CLEAR);
	MOVLW       1
	MOVWF       FARG_Lcd_Cmd_out_char+0 
	CALL        _Lcd_Cmd+0, 0
;Master.c,162 :: 		GSM_Msg_Read(position);
	MOVF        _position+0, 0 
	MOVWF       FARG_GSM_Msg_Read+0 
	MOVF        _position+1, 0 
	MOVWF       FARG_GSM_Msg_Read+1 
	CALL        _GSM_Msg_Read+0, 0
;Master.c,163 :: 		Delay_ms(2000);
	MOVLW       41
	MOVWF       R11, 0
	MOVLW       150
	MOVWF       R12, 0
	MOVLW       127
	MOVWF       R13, 0
L_main9:
	DECFSZ      R13, 1, 1
	BRA         L_main9
	DECFSZ      R12, 1, 1
	BRA         L_main9
	DECFSZ      R11, 1, 1
	BRA         L_main9
;Master.c,164 :: 		checksms();
	CALL        _checksms+0, 0
;Master.c,165 :: 		Lcd_Cmd(_LCD_CLEAR);
	MOVLW       1
	MOVWF       FARG_Lcd_Cmd_out_char+0 
	CALL        _Lcd_Cmd+0, 0
;Master.c,166 :: 		GSM_Msg_Delete(position);
	MOVF        _position+0, 0 
	MOVWF       FARG_GSM_Msg_Delete+0 
	MOVF        _position+1, 0 
	MOVWF       FARG_GSM_Msg_Delete+1 
	CALL        _GSM_Msg_Delete+0, 0
;Master.c,167 :: 		Lcd_Out(1,1,"Clear msg");
	MOVLW       1
	MOVWF       FARG_Lcd_Out_row+0 
	MOVLW       1
	MOVWF       FARG_Lcd_Out_column+0 
	MOVLW       ?lstr3_Master+0
	MOVWF       FARG_Lcd_Out_text+0 
	MOVLW       hi_addr(?lstr3_Master+0)
	MOVWF       FARG_Lcd_Out_text+1 
	CALL        _Lcd_Out+0, 0
;Master.c,168 :: 		GSM_Response();
	CALL        _GSM_Response+0, 0
;Master.c,169 :: 		Delay_ms(1000);
	MOVLW       21
	MOVWF       R11, 0
	MOVLW       75
	MOVWF       R12, 0
	MOVLW       190
	MOVWF       R13, 0
L_main10:
	DECFSZ      R13, 1, 1
	BRA         L_main10
	DECFSZ      R12, 1, 1
	BRA         L_main10
	DECFSZ      R11, 1, 1
	BRA         L_main10
	NOP
;Master.c,170 :: 		}
L_main6:
;Master.c,171 :: 		is_msg_arrived=0;
	CLRF        main_is_msg_arrived_L0+0 
	CLRF        main_is_msg_arrived_L0+1 
;Master.c,172 :: 		status_flag=0;
	CLRF        _status_flag+0 
;Master.c,173 :: 		Lcd_Cmd(_LCD_CLEAR);
	MOVLW       1
	MOVWF       FARG_Lcd_Cmd_out_char+0 
	CALL        _Lcd_Cmd+0, 0
;Master.c,174 :: 		}
L_main5:
;Master.c,175 :: 		Lcd_Out(1,16,"msg:0");
	MOVLW       1
	MOVWF       FARG_Lcd_Out_row+0 
	MOVLW       16
	MOVWF       FARG_Lcd_Out_column+0 
	MOVLW       ?lstr4_Master+0
	MOVWF       FARG_Lcd_Out_text+0 
	MOVLW       hi_addr(?lstr4_Master+0)
	MOVWF       FARG_Lcd_Out_text+1 
	CALL        _Lcd_Out+0, 0
;Master.c,176 :: 		memset(Mobile_no, 0, 14);
	MOVLW       _Mobile_no+0
	MOVWF       FARG_memset_p1+0 
	MOVLW       hi_addr(_Mobile_no+0)
	MOVWF       FARG_memset_p1+1 
	CLRF        FARG_memset_character+0 
	MOVLW       14
	MOVWF       FARG_memset_n+0 
	MOVLW       0
	MOVWF       FARG_memset_n+1 
	CALL        _memset+0, 0
;Master.c,178 :: 		memset(message_received, 0, 60);
	MOVLW       _message_received+0
	MOVWF       FARG_memset_p1+0 
	MOVLW       hi_addr(_message_received+0)
	MOVWF       FARG_memset_p1+1 
	CLRF        FARG_memset_character+0 
	MOVLW       60
	MOVWF       FARG_memset_n+0 
	MOVLW       0
	MOVWF       FARG_memset_n+1 
	CALL        _memset+0, 0
;Master.c,179 :: 		while( dat[4] != 255 );
L_main11:
	MOVF        _dat+4, 0 
	XORLW       255
	BTFSC       STATUS+0, 2 
	GOTO        L_main12
	GOTO        L_main11
L_main12:
;Master.c,181 :: 		dat[4]=0;
	CLRF        _dat+4 
;Master.c,183 :: 		}
	GOTO        L_main2
;Master.c,185 :: 		}
L_end_main:
	GOTO        $+0
; end of _main

_temp:

;Master.c,186 :: 		void temp(){
;Master.c,188 :: 		if (AM2302_Read(&humidity, &temperature) == 0)
	MOVLW       _humidity+0
	MOVWF       FARG_AM2302_Read+0 
	MOVLW       hi_addr(_humidity+0)
	MOVWF       FARG_AM2302_Read+1 
	MOVLW       _temperature+0
	MOVWF       FARG_AM2302_Read+0 
	MOVLW       hi_addr(_temperature+0)
	MOVWF       FARG_AM2302_Read+1 
	CALL        _AM2302_Read+0, 0
	MOVF        R0, 0 
	XORLW       0
	BTFSS       STATUS+0, 2 
	GOTO        L_temp13
;Master.c,189 :: 		processValue(humidity, temperature);
	MOVF        _humidity+0, 0 
	MOVWF       FARG_processValue+0 
	MOVF        _humidity+1, 0 
	MOVWF       FARG_processValue+1 
	MOVF        _temperature+0, 0 
	MOVWF       FARG_processValue+0 
	MOVF        _temperature+1, 0 
	MOVWF       FARG_processValue+1 
	CALL        _processValue+0, 0
	GOTO        L_temp14
L_temp13:
;Master.c,192 :: 		Lcd_out(1,1,"Sensor1 NC   ");
	MOVLW       1
	MOVWF       FARG_Lcd_Out_row+0 
	MOVLW       1
	MOVWF       FARG_Lcd_Out_column+0 
	MOVLW       ?lstr5_Master+0
	MOVWF       FARG_Lcd_Out_text+0 
	MOVLW       hi_addr(?lstr5_Master+0)
	MOVWF       FARG_Lcd_Out_text+1 
	CALL        _Lcd_Out+0, 0
;Master.c,193 :: 		Lcd_out(2,1,"             ");
	MOVLW       2
	MOVWF       FARG_Lcd_Out_row+0 
	MOVLW       1
	MOVWF       FARG_Lcd_Out_column+0 
	MOVLW       ?lstr6_Master+0
	MOVWF       FARG_Lcd_Out_text+0 
	MOVLW       hi_addr(?lstr6_Master+0)
	MOVWF       FARG_Lcd_Out_text+1 
	CALL        _Lcd_Out+0, 0
;Master.c,194 :: 		}
L_temp14:
;Master.c,196 :: 		}
L_end_temp:
	RETURN      0
; end of _temp

_re_485:

;Master.c,197 :: 		void re_485() {
;Master.c,198 :: 		cm=dat[2];
	MOVF        _dat+2, 0 
	MOVWF       _cm+0 
	MOVLW       0
	MOVWF       _cm+1 
;Master.c,199 :: 		value=(dat[0]*10)+dat[1];
	MOVLW       10
	MULWF       _dat+0 
	MOVF        PRODL+0, 0 
	MOVWF       _value+0 
	MOVF        PRODH+0, 0 
	MOVWF       _value+1 
	MOVF        _dat+1, 0 
	ADDWF       _value+0, 1 
	MOVLW       0
	ADDWFC      _value+1, 1 
;Master.c,200 :: 		if(cm==1)
	MOVLW       0
	XORWF       _cm+1, 0 
	BTFSS       STATUS+0, 2 
	GOTO        L__re_485150
	MOVLW       1
	XORWF       _cm+0, 0 
L__re_485150:
	BTFSS       STATUS+0, 2 
	GOTO        L_re_48515
;Master.c,202 :: 		Lcd_out(3,1,"Temp2: ");
	MOVLW       3
	MOVWF       FARG_Lcd_Out_row+0 
	MOVLW       1
	MOVWF       FARG_Lcd_Out_column+0 
	MOVLW       ?lstr7_Master+0
	MOVWF       FARG_Lcd_Out_text+0 
	MOVLW       hi_addr(?lstr7_Master+0)
	MOVWF       FARG_Lcd_Out_text+1 
	CALL        _Lcd_Out+0, 0
;Master.c,203 :: 		txt4[0]=(value/100)%10+48;
	MOVLW       100
	MOVWF       R4 
	MOVLW       0
	MOVWF       R5 
	MOVF        _value+0, 0 
	MOVWF       R0 
	MOVF        _value+1, 0 
	MOVWF       R1 
	CALL        _Div_16x16_S+0, 0
	MOVLW       10
	MOVWF       R4 
	MOVLW       0
	MOVWF       R5 
	CALL        _Div_16x16_S+0, 0
	MOVF        R8, 0 
	MOVWF       R0 
	MOVF        R9, 0 
	MOVWF       R1 
	MOVLW       48
	ADDWF       R0, 0 
	MOVWF       _txt4+0 
;Master.c,204 :: 		txt4[1]=(value/10)%10+48;
	MOVLW       10
	MOVWF       R4 
	MOVLW       0
	MOVWF       R5 
	MOVF        _value+0, 0 
	MOVWF       R0 
	MOVF        _value+1, 0 
	MOVWF       R1 
	CALL        _Div_16x16_S+0, 0
	MOVLW       10
	MOVWF       R4 
	MOVLW       0
	MOVWF       R5 
	CALL        _Div_16x16_S+0, 0
	MOVF        R8, 0 
	MOVWF       R0 
	MOVF        R9, 0 
	MOVWF       R1 
	MOVLW       48
	ADDWF       R0, 0 
	MOVWF       _txt4+1 
;Master.c,205 :: 		txt4[3]=(value%10)+48;
	MOVLW       10
	MOVWF       R4 
	MOVLW       0
	MOVWF       R5 
	MOVF        _value+0, 0 
	MOVWF       R0 
	MOVF        _value+1, 0 
	MOVWF       R1 
	CALL        _Div_16x16_S+0, 0
	MOVF        R8, 0 
	MOVWF       R0 
	MOVF        R9, 0 
	MOVWF       R1 
	MOVLW       48
	ADDWF       R0, 0 
	MOVWF       _txt4+3 
;Master.c,206 :: 		lcd_out(3,8,txt4);
	MOVLW       3
	MOVWF       FARG_Lcd_Out_row+0 
	MOVLW       8
	MOVWF       FARG_Lcd_Out_column+0 
	MOVLW       _txt4+0
	MOVWF       FARG_Lcd_Out_text+0 
	MOVLW       hi_addr(_txt4+0)
	MOVWF       FARG_Lcd_Out_text+1 
	CALL        _Lcd_Out+0, 0
;Master.c,207 :: 		Lcd_Out_CP(" C");
	MOVLW       ?lstr8_Master+0
	MOVWF       FARG_Lcd_Out_CP_text+0 
	MOVLW       hi_addr(?lstr8_Master+0)
	MOVWF       FARG_Lcd_Out_CP_text+1 
	CALL        _Lcd_Out_CP+0, 0
;Master.c,208 :: 		}
L_re_48515:
;Master.c,209 :: 		if(cm==2)
	MOVLW       0
	XORWF       _cm+1, 0 
	BTFSS       STATUS+0, 2 
	GOTO        L__re_485151
	MOVLW       2
	XORWF       _cm+0, 0 
L__re_485151:
	BTFSS       STATUS+0, 2 
	GOTO        L_re_48516
;Master.c,211 :: 		Lcd_out(4,1,"HUMI2: ");
	MOVLW       4
	MOVWF       FARG_Lcd_Out_row+0 
	MOVLW       1
	MOVWF       FARG_Lcd_Out_column+0 
	MOVLW       ?lstr9_Master+0
	MOVWF       FARG_Lcd_Out_text+0 
	MOVLW       hi_addr(?lstr9_Master+0)
	MOVWF       FARG_Lcd_Out_text+1 
	CALL        _Lcd_Out+0, 0
;Master.c,212 :: 		txt1[0]=(value/100)%10+48;
	MOVLW       100
	MOVWF       R4 
	MOVLW       0
	MOVWF       R5 
	MOVF        _value+0, 0 
	MOVWF       R0 
	MOVF        _value+1, 0 
	MOVWF       R1 
	CALL        _Div_16x16_S+0, 0
	MOVLW       10
	MOVWF       R4 
	MOVLW       0
	MOVWF       R5 
	CALL        _Div_16x16_S+0, 0
	MOVF        R8, 0 
	MOVWF       R0 
	MOVF        R9, 0 
	MOVWF       R1 
	MOVLW       48
	ADDWF       R0, 0 
	MOVWF       _txt1+0 
;Master.c,213 :: 		txt1[1]=(value/10)%10+48;
	MOVLW       10
	MOVWF       R4 
	MOVLW       0
	MOVWF       R5 
	MOVF        _value+0, 0 
	MOVWF       R0 
	MOVF        _value+1, 0 
	MOVWF       R1 
	CALL        _Div_16x16_S+0, 0
	MOVLW       10
	MOVWF       R4 
	MOVLW       0
	MOVWF       R5 
	CALL        _Div_16x16_S+0, 0
	MOVF        R8, 0 
	MOVWF       R0 
	MOVF        R9, 0 
	MOVWF       R1 
	MOVLW       48
	ADDWF       R0, 0 
	MOVWF       _txt1+1 
;Master.c,214 :: 		txt1[3]=(value%10)+48;
	MOVLW       10
	MOVWF       R4 
	MOVLW       0
	MOVWF       R5 
	MOVF        _value+0, 0 
	MOVWF       R0 
	MOVF        _value+1, 0 
	MOVWF       R1 
	CALL        _Div_16x16_S+0, 0
	MOVF        R8, 0 
	MOVWF       R0 
	MOVF        R9, 0 
	MOVWF       R1 
	MOVLW       48
	ADDWF       R0, 0 
	MOVWF       _txt1+3 
;Master.c,215 :: 		lcd_out(4,8,txt1);
	MOVLW       4
	MOVWF       FARG_Lcd_Out_row+0 
	MOVLW       8
	MOVWF       FARG_Lcd_Out_column+0 
	MOVLW       _txt1+0
	MOVWF       FARG_Lcd_Out_text+0 
	MOVLW       hi_addr(_txt1+0)
	MOVWF       FARG_Lcd_Out_text+1 
	CALL        _Lcd_Out+0, 0
;Master.c,216 :: 		Lcd_Out_CP(" %");
	MOVLW       ?lstr10_Master+0
	MOVWF       FARG_Lcd_Out_CP_text+0 
	MOVLW       hi_addr(?lstr10_Master+0)
	MOVWF       FARG_Lcd_Out_CP_text+1 
	CALL        _Lcd_Out_CP+0, 0
;Master.c,217 :: 		}
L_re_48516:
;Master.c,218 :: 		}
L_end_re_485:
	RETURN      0
; end of _re_485

_Interrupt:

;Master.c,220 :: 		void Interrupt()
;Master.c,222 :: 		RS485Master_Receive(dat);
	MOVLW       _dat+0
	MOVWF       FARG_RS485Master_Receive_data_buffer+0 
	MOVLW       hi_addr(_dat+0)
	MOVWF       FARG_RS485Master_Receive_data_buffer+1 
	CALL        _RS485Master_Receive+0, 0
;Master.c,224 :: 		if(PIR1.RC1IF)
	BTFSS       PIR1+0, 5 
	GOTO        L_Interrupt17
;Master.c,227 :: 		buff[buffer_pointer] = RCREG1;
	MOVLW       _buff+0
	ADDWF       _buffer_pointer+0, 0 
	MOVWF       FSR1 
	MOVLW       hi_addr(_buff+0)
	ADDWFC      _buffer_pointer+1, 0 
	MOVWF       FSR1H 
	MOVF        RCREG1+0, 0 
	MOVWF       POSTINC1+0 
;Master.c,228 :: 		buffer_pointer++;
	MOVLW       1
	ADDWF       _buffer_pointer+0, 0 
	MOVWF       R0 
	MOVLW       0
	ADDWFC      _buffer_pointer+1, 0 
	MOVWF       R1 
	MOVF        R0, 0 
	MOVWF       _buffer_pointer+0 
	MOVF        R1, 0 
	MOVWF       _buffer_pointer+1 
;Master.c,230 :: 		if(RCSTA1.OERR)
	BTFSS       RCSTA1+0, 1 
	GOTO        L_Interrupt18
;Master.c,232 :: 		RCSTA1.CREN = 0;
	BCF         RCSTA1+0, 4 
;Master.c,233 :: 		NOP();
	NOP
;Master.c,234 :: 		RCSTA1.CREN = 1;
	BSF         RCSTA1+0, 4 
;Master.c,235 :: 		}
L_Interrupt18:
;Master.c,236 :: 		status_flag=1;
	MOVLW       1
	MOVWF       _status_flag+0 
;Master.c,237 :: 		}
L_Interrupt17:
;Master.c,239 :: 		if (TMR1IF_bit){
	BTFSS       TMR1IF_bit+0, BitPos(TMR1IF_bit+0) 
	GOTO        L_Interrupt19
;Master.c,240 :: 		cnt++;
	INCF        _cnt+0, 1 
;Master.c,241 :: 		TMR1IF_bit = 0;
	BCF         TMR1IF_bit+0, BitPos(TMR1IF_bit+0) 
;Master.c,242 :: 		TMR1H         = 0x3C;
	MOVLW       60
	MOVWF       TMR1H+0 
;Master.c,243 :: 		TMR1L         = 0xB0;
	MOVLW       176
	MOVWF       TMR1L+0 
;Master.c,245 :: 		}
L_Interrupt19:
;Master.c,246 :: 		}
L_end_Interrupt:
L__Interrupt153:
	RETFIE      1
; end of _Interrupt

_checksms:

;Master.c,248 :: 		void checksms(){
;Master.c,250 :: 		if(strstr( message_received,"Call me")){
	MOVLW       _message_received+0
	MOVWF       FARG_strstr_s1+0 
	MOVLW       hi_addr(_message_received+0)
	MOVWF       FARG_strstr_s1+1 
	MOVLW       ?lstr11_Master+0
	MOVWF       FARG_strstr_s2+0 
	MOVLW       hi_addr(?lstr11_Master+0)
	MOVWF       FARG_strstr_s2+1 
	CALL        _strstr+0, 0
	MOVF        R0, 0 
	IORWF       R1, 0 
	BTFSC       STATUS+0, 2 
	GOTO        L_checksms20
;Master.c,251 :: 		GSM_Calling(Mobile_no1);
	MOVLW       _Mobile_no1+0
	MOVWF       FARG_GSM_Calling+0 
	MOVLW       hi_addr(_Mobile_no1+0)
	MOVWF       FARG_GSM_Calling+1 
	CALL        _GSM_Calling+0, 0
;Master.c,252 :: 		Lcd_Cmd(_LCD_CLEAR);
	MOVLW       1
	MOVWF       FARG_Lcd_Cmd_out_char+0 
	CALL        _Lcd_Cmd+0, 0
;Master.c,253 :: 		Lcd_Out(1,1,"Calling...");
	MOVLW       1
	MOVWF       FARG_Lcd_Out_row+0 
	MOVLW       1
	MOVWF       FARG_Lcd_Out_column+0 
	MOVLW       ?lstr12_Master+0
	MOVWF       FARG_Lcd_Out_text+0 
	MOVLW       hi_addr(?lstr12_Master+0)
	MOVWF       FARG_Lcd_Out_text+1 
	CALL        _Lcd_Out+0, 0
;Master.c,254 :: 		Delay_ms(15000);
	MOVLW       2
	MOVWF       R10, 0
	MOVLW       49
	MOVWF       R11, 0
	MOVLW       98
	MOVWF       R12, 0
	MOVLW       69
	MOVWF       R13, 0
L_checksms21:
	DECFSZ      R13, 1, 1
	BRA         L_checksms21
	DECFSZ      R12, 1, 1
	BRA         L_checksms21
	DECFSZ      R11, 1, 1
	BRA         L_checksms21
	DECFSZ      R10, 1, 1
	BRA         L_checksms21
;Master.c,255 :: 		GSM_HangCall();
	CALL        _GSM_HangCall+0, 0
;Master.c,256 :: 		Lcd_Out(1,1,"Hang Call");
	MOVLW       1
	MOVWF       FARG_Lcd_Out_row+0 
	MOVLW       1
	MOVWF       FARG_Lcd_Out_column+0 
	MOVLW       ?lstr13_Master+0
	MOVWF       FARG_Lcd_Out_text+0 
	MOVLW       hi_addr(?lstr13_Master+0)
	MOVWF       FARG_Lcd_Out_text+1 
	CALL        _Lcd_Out+0, 0
;Master.c,257 :: 		Delay_ms(500);
	MOVLW       11
	MOVWF       R11, 0
	MOVLW       38
	MOVWF       R12, 0
	MOVLW       93
	MOVWF       R13, 0
L_checksms22:
	DECFSZ      R13, 1, 1
	BRA         L_checksms22
	DECFSZ      R12, 1, 1
	BRA         L_checksms22
	DECFSZ      R11, 1, 1
	BRA         L_checksms22
	NOP
	NOP
;Master.c,258 :: 		}
	GOTO        L_checksms23
L_checksms20:
;Master.c,259 :: 		else if(strstr(message_received,"INFOR?")){
	MOVLW       _message_received+0
	MOVWF       FARG_strstr_s1+0 
	MOVLW       hi_addr(_message_received+0)
	MOVWF       FARG_strstr_s1+1 
	MOVLW       ?lstr14_Master+0
	MOVWF       FARG_strstr_s2+0 
	MOVLW       hi_addr(?lstr14_Master+0)
	MOVWF       FARG_strstr_s2+1 
	CALL        _strstr+0, 0
	MOVF        R0, 0 
	IORWF       R1, 0 
	BTFSC       STATUS+0, 2 
	GOTO        L_checksms24
;Master.c,261 :: 		Lcd_Cmd(_LCD_CLEAR);
	MOVLW       1
	MOVWF       FARG_Lcd_Cmd_out_char+0 
	CALL        _Lcd_Cmd+0, 0
;Master.c,262 :: 		Lcd_Out(1,1,"Send infor");
	MOVLW       1
	MOVWF       FARG_Lcd_Out_row+0 
	MOVLW       1
	MOVWF       FARG_Lcd_Out_column+0 
	MOVLW       ?lstr15_Master+0
	MOVWF       FARG_Lcd_Out_text+0 
	MOVLW       hi_addr(?lstr15_Master+0)
	MOVWF       FARG_Lcd_Out_text+1 
	CALL        _Lcd_Out+0, 0
;Master.c,263 :: 		Send_Status();
	CALL        _Send_Status+0, 0
;Master.c,264 :: 		Delay_ms(500);
	MOVLW       11
	MOVWF       R11, 0
	MOVLW       38
	MOVWF       R12, 0
	MOVLW       93
	MOVWF       R13, 0
L_checksms25:
	DECFSZ      R13, 1, 1
	BRA         L_checksms25
	DECFSZ      R12, 1, 1
	BRA         L_checksms25
	DECFSZ      R11, 1, 1
	BRA         L_checksms25
	NOP
	NOP
;Master.c,265 :: 		}
	GOTO        L_checksms26
L_checksms24:
;Master.c,266 :: 		else if(strstr(message_received,"TB1ON")){
	MOVLW       _message_received+0
	MOVWF       FARG_strstr_s1+0 
	MOVLW       hi_addr(_message_received+0)
	MOVWF       FARG_strstr_s1+1 
	MOVLW       ?lstr16_Master+0
	MOVWF       FARG_strstr_s2+0 
	MOVLW       hi_addr(?lstr16_Master+0)
	MOVWF       FARG_strstr_s2+1 
	CALL        _strstr+0, 0
	MOVF        R0, 0 
	IORWF       R1, 0 
	BTFSC       STATUS+0, 2 
	GOTO        L_checksms27
;Master.c,267 :: 		Relay1=1;
	BSF         LATA5_bit+0, BitPos(LATA5_bit+0) 
;Master.c,268 :: 		Lcd_Cmd(_LCD_CLEAR);
	MOVLW       1
	MOVWF       FARG_Lcd_Cmd_out_char+0 
	CALL        _Lcd_Cmd+0, 0
;Master.c,269 :: 		Lcd_Out(1,1,"TB1 ON");
	MOVLW       1
	MOVWF       FARG_Lcd_Out_row+0 
	MOVLW       1
	MOVWF       FARG_Lcd_Out_column+0 
	MOVLW       ?lstr17_Master+0
	MOVWF       FARG_Lcd_Out_text+0 
	MOVLW       hi_addr(?lstr17_Master+0)
	MOVWF       FARG_Lcd_Out_text+1 
	CALL        _Lcd_Out+0, 0
;Master.c,270 :: 		Send_Status();
	CALL        _Send_Status+0, 0
;Master.c,271 :: 		Delay_ms(500);
	MOVLW       11
	MOVWF       R11, 0
	MOVLW       38
	MOVWF       R12, 0
	MOVLW       93
	MOVWF       R13, 0
L_checksms28:
	DECFSZ      R13, 1, 1
	BRA         L_checksms28
	DECFSZ      R12, 1, 1
	BRA         L_checksms28
	DECFSZ      R11, 1, 1
	BRA         L_checksms28
	NOP
	NOP
;Master.c,272 :: 		}
	GOTO        L_checksms29
L_checksms27:
;Master.c,273 :: 		else if(strstr(message_received,"TB1OFF")){
	MOVLW       _message_received+0
	MOVWF       FARG_strstr_s1+0 
	MOVLW       hi_addr(_message_received+0)
	MOVWF       FARG_strstr_s1+1 
	MOVLW       ?lstr18_Master+0
	MOVWF       FARG_strstr_s2+0 
	MOVLW       hi_addr(?lstr18_Master+0)
	MOVWF       FARG_strstr_s2+1 
	CALL        _strstr+0, 0
	MOVF        R0, 0 
	IORWF       R1, 0 
	BTFSC       STATUS+0, 2 
	GOTO        L_checksms30
;Master.c,274 :: 		Relay1=0;
	BCF         LATA5_bit+0, BitPos(LATA5_bit+0) 
;Master.c,275 :: 		Lcd_Cmd(_LCD_CLEAR);
	MOVLW       1
	MOVWF       FARG_Lcd_Cmd_out_char+0 
	CALL        _Lcd_Cmd+0, 0
;Master.c,276 :: 		Lcd_Out(1,1,"TB1 OFF");
	MOVLW       1
	MOVWF       FARG_Lcd_Out_row+0 
	MOVLW       1
	MOVWF       FARG_Lcd_Out_column+0 
	MOVLW       ?lstr19_Master+0
	MOVWF       FARG_Lcd_Out_text+0 
	MOVLW       hi_addr(?lstr19_Master+0)
	MOVWF       FARG_Lcd_Out_text+1 
	CALL        _Lcd_Out+0, 0
;Master.c,277 :: 		Send_Status();
	CALL        _Send_Status+0, 0
;Master.c,278 :: 		Delay_ms(500);
	MOVLW       11
	MOVWF       R11, 0
	MOVLW       38
	MOVWF       R12, 0
	MOVLW       93
	MOVWF       R13, 0
L_checksms31:
	DECFSZ      R13, 1, 1
	BRA         L_checksms31
	DECFSZ      R12, 1, 1
	BRA         L_checksms31
	DECFSZ      R11, 1, 1
	BRA         L_checksms31
	NOP
	NOP
;Master.c,279 :: 		}
	GOTO        L_checksms32
L_checksms30:
;Master.c,280 :: 		else if(strstr(message_received,"TB2ON")){
	MOVLW       _message_received+0
	MOVWF       FARG_strstr_s1+0 
	MOVLW       hi_addr(_message_received+0)
	MOVWF       FARG_strstr_s1+1 
	MOVLW       ?lstr20_Master+0
	MOVWF       FARG_strstr_s2+0 
	MOVLW       hi_addr(?lstr20_Master+0)
	MOVWF       FARG_strstr_s2+1 
	CALL        _strstr+0, 0
	MOVF        R0, 0 
	IORWF       R1, 0 
	BTFSC       STATUS+0, 2 
	GOTO        L_checksms33
;Master.c,281 :: 		Relay2=1;
	BSF         LATA4_bit+0, BitPos(LATA4_bit+0) 
;Master.c,282 :: 		Lcd_Cmd(_LCD_CLEAR);
	MOVLW       1
	MOVWF       FARG_Lcd_Cmd_out_char+0 
	CALL        _Lcd_Cmd+0, 0
;Master.c,283 :: 		Lcd_Out(1,1,"TB2 ON");
	MOVLW       1
	MOVWF       FARG_Lcd_Out_row+0 
	MOVLW       1
	MOVWF       FARG_Lcd_Out_column+0 
	MOVLW       ?lstr21_Master+0
	MOVWF       FARG_Lcd_Out_text+0 
	MOVLW       hi_addr(?lstr21_Master+0)
	MOVWF       FARG_Lcd_Out_text+1 
	CALL        _Lcd_Out+0, 0
;Master.c,284 :: 		Send_Status();
	CALL        _Send_Status+0, 0
;Master.c,285 :: 		Delay_ms(500);
	MOVLW       11
	MOVWF       R11, 0
	MOVLW       38
	MOVWF       R12, 0
	MOVLW       93
	MOVWF       R13, 0
L_checksms34:
	DECFSZ      R13, 1, 1
	BRA         L_checksms34
	DECFSZ      R12, 1, 1
	BRA         L_checksms34
	DECFSZ      R11, 1, 1
	BRA         L_checksms34
	NOP
	NOP
;Master.c,286 :: 		}
	GOTO        L_checksms35
L_checksms33:
;Master.c,287 :: 		else if(strstr(message_received,"R2 off")){
	MOVLW       _message_received+0
	MOVWF       FARG_strstr_s1+0 
	MOVLW       hi_addr(_message_received+0)
	MOVWF       FARG_strstr_s1+1 
	MOVLW       ?lstr22_Master+0
	MOVWF       FARG_strstr_s2+0 
	MOVLW       hi_addr(?lstr22_Master+0)
	MOVWF       FARG_strstr_s2+1 
	CALL        _strstr+0, 0
	MOVF        R0, 0 
	IORWF       R1, 0 
	BTFSC       STATUS+0, 2 
	GOTO        L_checksms36
;Master.c,288 :: 		Relay2=0;
	BCF         LATA4_bit+0, BitPos(LATA4_bit+0) 
;Master.c,289 :: 		Lcd_Cmd(_LCD_CLEAR);
	MOVLW       1
	MOVWF       FARG_Lcd_Cmd_out_char+0 
	CALL        _Lcd_Cmd+0, 0
;Master.c,290 :: 		Lcd_Out(1,1,"TB2 OFF");
	MOVLW       1
	MOVWF       FARG_Lcd_Out_row+0 
	MOVLW       1
	MOVWF       FARG_Lcd_Out_column+0 
	MOVLW       ?lstr23_Master+0
	MOVWF       FARG_Lcd_Out_text+0 
	MOVLW       hi_addr(?lstr23_Master+0)
	MOVWF       FARG_Lcd_Out_text+1 
	CALL        _Lcd_Out+0, 0
;Master.c,291 :: 		Send_Status();
	CALL        _Send_Status+0, 0
;Master.c,292 :: 		Delay_ms(500);
	MOVLW       11
	MOVWF       R11, 0
	MOVLW       38
	MOVWF       R12, 0
	MOVLW       93
	MOVWF       R13, 0
L_checksms37:
	DECFSZ      R13, 1, 1
	BRA         L_checksms37
	DECFSZ      R12, 1, 1
	BRA         L_checksms37
	DECFSZ      R11, 1, 1
	BRA         L_checksms37
	NOP
	NOP
;Master.c,293 :: 		}
L_checksms36:
L_checksms35:
L_checksms32:
L_checksms29:
L_checksms26:
L_checksms23:
;Master.c,294 :: 		}
L_end_checksms:
	RETURN      0
; end of _checksms

_ComposeMessage:

;Master.c,296 :: 		unsigned ComposeMessage(char* Message){
;Master.c,298 :: 		Message[0] = '\0';
	MOVFF       FARG_ComposeMessage_Message+0, FSR1
	MOVFF       FARG_ComposeMessage_Message+1, FSR1H
	CLRF        POSTINC1+0 
;Master.c,299 :: 		strcat(Message, "INFO:");
	MOVF        FARG_ComposeMessage_Message+0, 0 
	MOVWF       FARG_strcat_to+0 
	MOVF        FARG_ComposeMessage_Message+1, 0 
	MOVWF       FARG_strcat_to+1 
	MOVLW       ?lstr24_Master+0
	MOVWF       FARG_strcat_from+0 
	MOVLW       hi_addr(?lstr24_Master+0)
	MOVWF       FARG_strcat_from+1 
	CALL        _strcat+0, 0
;Master.c,300 :: 		strcat(Message, "\r\n");
	MOVF        FARG_ComposeMessage_Message+0, 0 
	MOVWF       FARG_strcat_to+0 
	MOVF        FARG_ComposeMessage_Message+1, 0 
	MOVWF       FARG_strcat_to+1 
	MOVLW       ?lstr25_Master+0
	MOVWF       FARG_strcat_from+0 
	MOVLW       hi_addr(?lstr25_Master+0)
	MOVWF       FARG_strcat_from+1 
	CALL        _strcat+0, 0
;Master.c,302 :: 		if (Relay1)
	BTFSS       LATA5_bit+0, BitPos(LATA5_bit+0) 
	GOTO        L_ComposeMessage38
;Master.c,303 :: 		{ strcat(Message, " TB1 - ON");  }
	MOVF        FARG_ComposeMessage_Message+0, 0 
	MOVWF       FARG_strcat_to+0 
	MOVF        FARG_ComposeMessage_Message+1, 0 
	MOVWF       FARG_strcat_to+1 
	MOVLW       ?lstr26_Master+0
	MOVWF       FARG_strcat_from+0 
	MOVLW       hi_addr(?lstr26_Master+0)
	MOVWF       FARG_strcat_from+1 
	CALL        _strcat+0, 0
	GOTO        L_ComposeMessage39
L_ComposeMessage38:
;Master.c,305 :: 		{ strcat(Message, " TB1 - OFF"); }
	MOVF        FARG_ComposeMessage_Message+0, 0 
	MOVWF       FARG_strcat_to+0 
	MOVF        FARG_ComposeMessage_Message+1, 0 
	MOVWF       FARG_strcat_to+1 
	MOVLW       ?lstr27_Master+0
	MOVWF       FARG_strcat_from+0 
	MOVLW       hi_addr(?lstr27_Master+0)
	MOVWF       FARG_strcat_from+1 
	CALL        _strcat+0, 0
L_ComposeMessage39:
;Master.c,306 :: 		strcat(Message, "\r\n");
	MOVF        FARG_ComposeMessage_Message+0, 0 
	MOVWF       FARG_strcat_to+0 
	MOVF        FARG_ComposeMessage_Message+1, 0 
	MOVWF       FARG_strcat_to+1 
	MOVLW       ?lstr28_Master+0
	MOVWF       FARG_strcat_from+0 
	MOVLW       hi_addr(?lstr28_Master+0)
	MOVWF       FARG_strcat_from+1 
	CALL        _strcat+0, 0
;Master.c,308 :: 		if (Relay2)
	BTFSS       LATA4_bit+0, BitPos(LATA4_bit+0) 
	GOTO        L_ComposeMessage40
;Master.c,309 :: 		{ strcat(Message, " TB2 - ON");  }
	MOVF        FARG_ComposeMessage_Message+0, 0 
	MOVWF       FARG_strcat_to+0 
	MOVF        FARG_ComposeMessage_Message+1, 0 
	MOVWF       FARG_strcat_to+1 
	MOVLW       ?lstr29_Master+0
	MOVWF       FARG_strcat_from+0 
	MOVLW       hi_addr(?lstr29_Master+0)
	MOVWF       FARG_strcat_from+1 
	CALL        _strcat+0, 0
	GOTO        L_ComposeMessage41
L_ComposeMessage40:
;Master.c,311 :: 		{ strcat(Message, " TB2 - OFF"); }
	MOVF        FARG_ComposeMessage_Message+0, 0 
	MOVWF       FARG_strcat_to+0 
	MOVF        FARG_ComposeMessage_Message+1, 0 
	MOVWF       FARG_strcat_to+1 
	MOVLW       ?lstr30_Master+0
	MOVWF       FARG_strcat_from+0 
	MOVLW       hi_addr(?lstr30_Master+0)
	MOVWF       FARG_strcat_from+1 
	CALL        _strcat+0, 0
L_ComposeMessage41:
;Master.c,312 :: 		strcat(Message, "\r\n");
	MOVF        FARG_ComposeMessage_Message+0, 0 
	MOVWF       FARG_strcat_to+0 
	MOVF        FARG_ComposeMessage_Message+1, 0 
	MOVWF       FARG_strcat_to+1 
	MOVLW       ?lstr31_Master+0
	MOVWF       FARG_strcat_from+0 
	MOVLW       hi_addr(?lstr31_Master+0)
	MOVWF       FARG_strcat_from+1 
	CALL        _strcat+0, 0
;Master.c,314 :: 		if (Button(&PORTA, 2, 1, 1))  // Digital_IN1
	MOVLW       PORTA+0
	MOVWF       FARG_Button_port+0 
	MOVLW       hi_addr(PORTA+0)
	MOVWF       FARG_Button_port+1 
	MOVLW       2
	MOVWF       FARG_Button_pin+0 
	MOVLW       1
	MOVWF       FARG_Button_time_ms+0 
	MOVLW       1
	MOVWF       FARG_Button_active_state+0 
	CALL        _Button+0, 0
	MOVF        R0, 1 
	BTFSC       STATUS+0, 2 
	GOTO        L_ComposeMessage42
;Master.c,315 :: 		{ strcat(Message, "IN1 - OFF"); }
	MOVF        FARG_ComposeMessage_Message+0, 0 
	MOVWF       FARG_strcat_to+0 
	MOVF        FARG_ComposeMessage_Message+1, 0 
	MOVWF       FARG_strcat_to+1 
	MOVLW       ?lstr32_Master+0
	MOVWF       FARG_strcat_from+0 
	MOVLW       hi_addr(?lstr32_Master+0)
	MOVWF       FARG_strcat_from+1 
	CALL        _strcat+0, 0
	GOTO        L_ComposeMessage43
L_ComposeMessage42:
;Master.c,317 :: 		{ strcat(Message, "IN1 - ON"); }
	MOVF        FARG_ComposeMessage_Message+0, 0 
	MOVWF       FARG_strcat_to+0 
	MOVF        FARG_ComposeMessage_Message+1, 0 
	MOVWF       FARG_strcat_to+1 
	MOVLW       ?lstr33_Master+0
	MOVWF       FARG_strcat_from+0 
	MOVLW       hi_addr(?lstr33_Master+0)
	MOVWF       FARG_strcat_from+1 
	CALL        _strcat+0, 0
L_ComposeMessage43:
;Master.c,318 :: 		strcat(Message, "\r\n");
	MOVF        FARG_ComposeMessage_Message+0, 0 
	MOVWF       FARG_strcat_to+0 
	MOVF        FARG_ComposeMessage_Message+1, 0 
	MOVWF       FARG_strcat_to+1 
	MOVLW       ?lstr34_Master+0
	MOVWF       FARG_strcat_from+0 
	MOVLW       hi_addr(?lstr34_Master+0)
	MOVWF       FARG_strcat_from+1 
	CALL        _strcat+0, 0
;Master.c,319 :: 		if (Button(&PORTA, 3, 1, 1))  // Digital_IN2
	MOVLW       PORTA+0
	MOVWF       FARG_Button_port+0 
	MOVLW       hi_addr(PORTA+0)
	MOVWF       FARG_Button_port+1 
	MOVLW       3
	MOVWF       FARG_Button_pin+0 
	MOVLW       1
	MOVWF       FARG_Button_time_ms+0 
	MOVLW       1
	MOVWF       FARG_Button_active_state+0 
	CALL        _Button+0, 0
	MOVF        R0, 1 
	BTFSC       STATUS+0, 2 
	GOTO        L_ComposeMessage44
;Master.c,320 :: 		{ strcat(Message, "IN1 - OFF"); }
	MOVF        FARG_ComposeMessage_Message+0, 0 
	MOVWF       FARG_strcat_to+0 
	MOVF        FARG_ComposeMessage_Message+1, 0 
	MOVWF       FARG_strcat_to+1 
	MOVLW       ?lstr35_Master+0
	MOVWF       FARG_strcat_from+0 
	MOVLW       hi_addr(?lstr35_Master+0)
	MOVWF       FARG_strcat_from+1 
	CALL        _strcat+0, 0
	GOTO        L_ComposeMessage45
L_ComposeMessage44:
;Master.c,322 :: 		{ strcat(Message, " IN2 - ON"); }
	MOVF        FARG_ComposeMessage_Message+0, 0 
	MOVWF       FARG_strcat_to+0 
	MOVF        FARG_ComposeMessage_Message+1, 0 
	MOVWF       FARG_strcat_to+1 
	MOVLW       ?lstr36_Master+0
	MOVWF       FARG_strcat_from+0 
	MOVLW       hi_addr(?lstr36_Master+0)
	MOVWF       FARG_strcat_from+1 
	CALL        _strcat+0, 0
L_ComposeMessage45:
;Master.c,323 :: 		strcat(Message, "\r\n");
	MOVF        FARG_ComposeMessage_Message+0, 0 
	MOVWF       FARG_strcat_to+0 
	MOVF        FARG_ComposeMessage_Message+1, 0 
	MOVWF       FARG_strcat_to+1 
	MOVLW       ?lstr37_Master+0
	MOVWF       FARG_strcat_from+0 
	MOVLW       hi_addr(?lstr37_Master+0)
	MOVWF       FARG_strcat_from+1 
	CALL        _strcat+0, 0
;Master.c,325 :: 		if (AM2302_Read(&humidity, &temperature) == 0)
	MOVLW       _humidity+0
	MOVWF       FARG_AM2302_Read+0 
	MOVLW       hi_addr(_humidity+0)
	MOVWF       FARG_AM2302_Read+1 
	MOVLW       _temperature+0
	MOVWF       FARG_AM2302_Read+0 
	MOVLW       hi_addr(_temperature+0)
	MOVWF       FARG_AM2302_Read+1 
	CALL        _AM2302_Read+0, 0
	MOVF        R0, 0 
	XORLW       0
	BTFSS       STATUS+0, 2 
	GOTO        L_ComposeMessage46
;Master.c,327 :: 		processValue(humidity, temperature);
	MOVF        _humidity+0, 0 
	MOVWF       FARG_processValue+0 
	MOVF        _humidity+1, 0 
	MOVWF       FARG_processValue+1 
	MOVF        _temperature+0, 0 
	MOVWF       FARG_processValue+0 
	MOVF        _temperature+1, 0 
	MOVWF       FARG_processValue+1 
	CALL        _processValue+0, 0
;Master.c,328 :: 		txt2[0]= temperature/100 +48;
	MOVLW       100
	MOVWF       R4 
	MOVLW       0
	MOVWF       R5 
	MOVF        _temperature+0, 0 
	MOVWF       R0 
	MOVF        _temperature+1, 0 
	MOVWF       R1 
	CALL        _Div_16X16_U+0, 0
	MOVLW       48
	ADDWF       R0, 0 
	MOVWF       _txt2+0 
;Master.c,329 :: 		txt2[1]= (temperature/10)%10 +48;
	MOVLW       10
	MOVWF       R4 
	MOVLW       0
	MOVWF       R5 
	MOVF        _temperature+0, 0 
	MOVWF       R0 
	MOVF        _temperature+1, 0 
	MOVWF       R1 
	CALL        _Div_16X16_U+0, 0
	MOVLW       10
	MOVWF       R4 
	MOVLW       0
	MOVWF       R5 
	CALL        _Div_16X16_U+0, 0
	MOVF        R8, 0 
	MOVWF       R0 
	MOVF        R9, 0 
	MOVWF       R1 
	MOVLW       48
	ADDWF       R0, 0 
	MOVWF       _txt2+1 
;Master.c,331 :: 		txt2[3]= temperature%10 +48;
	MOVLW       10
	MOVWF       R4 
	MOVLW       0
	MOVWF       R5 
	MOVF        _temperature+0, 0 
	MOVWF       R0 
	MOVF        _temperature+1, 0 
	MOVWF       R1 
	CALL        _Div_16X16_U+0, 0
	MOVF        R8, 0 
	MOVWF       R0 
	MOVF        R9, 0 
	MOVWF       R1 
	MOVLW       48
	ADDWF       R0, 0 
	MOVWF       _txt2+3 
;Master.c,332 :: 		strcat(Message, " TEMP 1: ");
	MOVF        FARG_ComposeMessage_Message+0, 0 
	MOVWF       FARG_strcat_to+0 
	MOVF        FARG_ComposeMessage_Message+1, 0 
	MOVWF       FARG_strcat_to+1 
	MOVLW       ?lstr38_Master+0
	MOVWF       FARG_strcat_from+0 
	MOVLW       hi_addr(?lstr38_Master+0)
	MOVWF       FARG_strcat_from+1 
	CALL        _strcat+0, 0
;Master.c,333 :: 		strcat(Message, txt2);    // Add Humidity data
	MOVF        FARG_ComposeMessage_Message+0, 0 
	MOVWF       FARG_strcat_to+0 
	MOVF        FARG_ComposeMessage_Message+1, 0 
	MOVWF       FARG_strcat_to+1 
	MOVLW       _txt2+0
	MOVWF       FARG_strcat_from+0 
	MOVLW       hi_addr(_txt2+0)
	MOVWF       FARG_strcat_from+1 
	CALL        _strcat+0, 0
;Master.c,334 :: 		strcat(Message, " C");
	MOVF        FARG_ComposeMessage_Message+0, 0 
	MOVWF       FARG_strcat_to+0 
	MOVF        FARG_ComposeMessage_Message+1, 0 
	MOVWF       FARG_strcat_to+1 
	MOVLW       ?lstr39_Master+0
	MOVWF       FARG_strcat_from+0 
	MOVLW       hi_addr(?lstr39_Master+0)
	MOVWF       FARG_strcat_from+1 
	CALL        _strcat+0, 0
;Master.c,335 :: 		strcat(Message, "\r\n");
	MOVF        FARG_ComposeMessage_Message+0, 0 
	MOVWF       FARG_strcat_to+0 
	MOVF        FARG_ComposeMessage_Message+1, 0 
	MOVWF       FARG_strcat_to+1 
	MOVLW       ?lstr40_Master+0
	MOVWF       FARG_strcat_from+0 
	MOVLW       hi_addr(?lstr40_Master+0)
	MOVWF       FARG_strcat_from+1 
	CALL        _strcat+0, 0
;Master.c,337 :: 		strcat(Message, " HUMI 1: ");
	MOVF        FARG_ComposeMessage_Message+0, 0 
	MOVWF       FARG_strcat_to+0 
	MOVF        FARG_ComposeMessage_Message+1, 0 
	MOVWF       FARG_strcat_to+1 
	MOVLW       ?lstr41_Master+0
	MOVWF       FARG_strcat_from+0 
	MOVLW       hi_addr(?lstr41_Master+0)
	MOVWF       FARG_strcat_from+1 
	CALL        _strcat+0, 0
;Master.c,338 :: 		strcat(Message, txt3);    // Add Humidity data
	MOVF        FARG_ComposeMessage_Message+0, 0 
	MOVWF       FARG_strcat_to+0 
	MOVF        FARG_ComposeMessage_Message+1, 0 
	MOVWF       FARG_strcat_to+1 
	MOVLW       _txt3+0
	MOVWF       FARG_strcat_from+0 
	MOVLW       hi_addr(_txt3+0)
	MOVWF       FARG_strcat_from+1 
	CALL        _strcat+0, 0
;Master.c,339 :: 		strcat(Message, " %");
	MOVF        FARG_ComposeMessage_Message+0, 0 
	MOVWF       FARG_strcat_to+0 
	MOVF        FARG_ComposeMessage_Message+1, 0 
	MOVWF       FARG_strcat_to+1 
	MOVLW       ?lstr42_Master+0
	MOVWF       FARG_strcat_from+0 
	MOVLW       hi_addr(?lstr42_Master+0)
	MOVWF       FARG_strcat_from+1 
	CALL        _strcat+0, 0
;Master.c,340 :: 		strcat(Message, "\r\n");
	MOVF        FARG_ComposeMessage_Message+0, 0 
	MOVWF       FARG_strcat_to+0 
	MOVF        FARG_ComposeMessage_Message+1, 0 
	MOVWF       FARG_strcat_to+1 
	MOVLW       ?lstr43_Master+0
	MOVWF       FARG_strcat_from+0 
	MOVLW       hi_addr(?lstr43_Master+0)
	MOVWF       FARG_strcat_from+1 
	CALL        _strcat+0, 0
;Master.c,341 :: 		}
	GOTO        L_ComposeMessage47
L_ComposeMessage46:
;Master.c,344 :: 		strcat(Message, "Sensor 1 Error");
	MOVF        FARG_ComposeMessage_Message+0, 0 
	MOVWF       FARG_strcat_to+0 
	MOVF        FARG_ComposeMessage_Message+1, 0 
	MOVWF       FARG_strcat_to+1 
	MOVLW       ?lstr44_Master+0
	MOVWF       FARG_strcat_from+0 
	MOVLW       hi_addr(?lstr44_Master+0)
	MOVWF       FARG_strcat_from+1 
	CALL        _strcat+0, 0
;Master.c,345 :: 		strcat(Message, "\r\n");
	MOVF        FARG_ComposeMessage_Message+0, 0 
	MOVWF       FARG_strcat_to+0 
	MOVF        FARG_ComposeMessage_Message+1, 0 
	MOVWF       FARG_strcat_to+1 
	MOVLW       ?lstr45_Master+0
	MOVWF       FARG_strcat_from+0 
	MOVLW       hi_addr(?lstr45_Master+0)
	MOVWF       FARG_strcat_from+1 
	CALL        _strcat+0, 0
;Master.c,346 :: 		}
L_ComposeMessage47:
;Master.c,347 :: 		strcat(Message, " TEMP 1: ");
	MOVF        FARG_ComposeMessage_Message+0, 0 
	MOVWF       FARG_strcat_to+0 
	MOVF        FARG_ComposeMessage_Message+1, 0 
	MOVWF       FARG_strcat_to+1 
	MOVLW       ?lstr46_Master+0
	MOVWF       FARG_strcat_from+0 
	MOVLW       hi_addr(?lstr46_Master+0)
	MOVWF       FARG_strcat_from+1 
	CALL        _strcat+0, 0
;Master.c,348 :: 		strcat(Message, txt4);    // Add Humidity data
	MOVF        FARG_ComposeMessage_Message+0, 0 
	MOVWF       FARG_strcat_to+0 
	MOVF        FARG_ComposeMessage_Message+1, 0 
	MOVWF       FARG_strcat_to+1 
	MOVLW       _txt4+0
	MOVWF       FARG_strcat_from+0 
	MOVLW       hi_addr(_txt4+0)
	MOVWF       FARG_strcat_from+1 
	CALL        _strcat+0, 0
;Master.c,349 :: 		strcat(Message, " C");
	MOVF        FARG_ComposeMessage_Message+0, 0 
	MOVWF       FARG_strcat_to+0 
	MOVF        FARG_ComposeMessage_Message+1, 0 
	MOVWF       FARG_strcat_to+1 
	MOVLW       ?lstr47_Master+0
	MOVWF       FARG_strcat_from+0 
	MOVLW       hi_addr(?lstr47_Master+0)
	MOVWF       FARG_strcat_from+1 
	CALL        _strcat+0, 0
;Master.c,350 :: 		strcat(Message, "\r\n");
	MOVF        FARG_ComposeMessage_Message+0, 0 
	MOVWF       FARG_strcat_to+0 
	MOVF        FARG_ComposeMessage_Message+1, 0 
	MOVWF       FARG_strcat_to+1 
	MOVLW       ?lstr48_Master+0
	MOVWF       FARG_strcat_from+0 
	MOVLW       hi_addr(?lstr48_Master+0)
	MOVWF       FARG_strcat_from+1 
	CALL        _strcat+0, 0
;Master.c,351 :: 		strcat(Message, " HUMI 2: ");
	MOVF        FARG_ComposeMessage_Message+0, 0 
	MOVWF       FARG_strcat_to+0 
	MOVF        FARG_ComposeMessage_Message+1, 0 
	MOVWF       FARG_strcat_to+1 
	MOVLW       ?lstr49_Master+0
	MOVWF       FARG_strcat_from+0 
	MOVLW       hi_addr(?lstr49_Master+0)
	MOVWF       FARG_strcat_from+1 
	CALL        _strcat+0, 0
;Master.c,352 :: 		strcat(Message, txt1);    // Add Humidity data
	MOVF        FARG_ComposeMessage_Message+0, 0 
	MOVWF       FARG_strcat_to+0 
	MOVF        FARG_ComposeMessage_Message+1, 0 
	MOVWF       FARG_strcat_to+1 
	MOVLW       _txt1+0
	MOVWF       FARG_strcat_from+0 
	MOVLW       hi_addr(_txt1+0)
	MOVWF       FARG_strcat_from+1 
	CALL        _strcat+0, 0
;Master.c,353 :: 		strcat(Message, " %");
	MOVF        FARG_ComposeMessage_Message+0, 0 
	MOVWF       FARG_strcat_to+0 
	MOVF        FARG_ComposeMessage_Message+1, 0 
	MOVWF       FARG_strcat_to+1 
	MOVLW       ?lstr50_Master+0
	MOVWF       FARG_strcat_from+0 
	MOVLW       hi_addr(?lstr50_Master+0)
	MOVWF       FARG_strcat_from+1 
	CALL        _strcat+0, 0
;Master.c,354 :: 		strcat(Message, "\r\n");
	MOVF        FARG_ComposeMessage_Message+0, 0 
	MOVWF       FARG_strcat_to+0 
	MOVF        FARG_ComposeMessage_Message+1, 0 
	MOVWF       FARG_strcat_to+1 
	MOVLW       ?lstr51_Master+0
	MOVWF       FARG_strcat_from+0 
	MOVLW       hi_addr(?lstr51_Master+0)
	MOVWF       FARG_strcat_from+1 
	CALL        _strcat+0, 0
;Master.c,355 :: 		strcat(Message, "End.");
	MOVF        FARG_ComposeMessage_Message+0, 0 
	MOVWF       FARG_strcat_to+0 
	MOVF        FARG_ComposeMessage_Message+1, 0 
	MOVWF       FARG_strcat_to+1 
	MOVLW       ?lstr52_Master+0
	MOVWF       FARG_strcat_from+0 
	MOVLW       hi_addr(?lstr52_Master+0)
	MOVWF       FARG_strcat_from+1 
	CALL        _strcat+0, 0
;Master.c,356 :: 		strcat(Message, "\r\n");
	MOVF        FARG_ComposeMessage_Message+0, 0 
	MOVWF       FARG_strcat_to+0 
	MOVF        FARG_ComposeMessage_Message+1, 0 
	MOVWF       FARG_strcat_to+1 
	MOVLW       ?lstr53_Master+0
	MOVWF       FARG_strcat_from+0 
	MOVLW       hi_addr(?lstr53_Master+0)
	MOVWF       FARG_strcat_from+1 
	CALL        _strcat+0, 0
;Master.c,357 :: 		return strlen(Message);
	MOVF        FARG_ComposeMessage_Message+0, 0 
	MOVWF       FARG_strlen_s+0 
	MOVF        FARG_ComposeMessage_Message+1, 0 
	MOVWF       FARG_strlen_s+1 
	CALL        _strlen+0, 0
;Master.c,358 :: 		}
L_end_ComposeMessage:
	RETURN      0
; end of _ComposeMessage

_Send_Status:

;Master.c,360 :: 		void Send_Status(){
;Master.c,361 :: 		ComposeMessage(sms);
	MOVLW       _sms+0
	MOVWF       FARG_ComposeMessage_Message+0 
	MOVLW       hi_addr(_sms+0)
	MOVWF       FARG_ComposeMessage_Message+1 
	CALL        _ComposeMessage+0, 0
;Master.c,362 :: 		GSM_Send_Msg(Mobile_no1,sms);
	MOVLW       _Mobile_no1+0
	MOVWF       FARG_GSM_Send_Msg+0 
	MOVLW       hi_addr(_Mobile_no1+0)
	MOVWF       FARG_GSM_Send_Msg+1 
	MOVLW       _sms+0
	MOVWF       FARG_GSM_Send_Msg+0 
	MOVLW       hi_addr(_sms+0)
	MOVWF       FARG_GSM_Send_Msg+1 
	CALL        _GSM_Send_Msg+0, 0
;Master.c,363 :: 		}
L_end_Send_Status:
	RETURN      0
; end of _Send_Status

_GSM_Begin:

;Master.c,366 :: 		void GSM_Begin()
;Master.c,369 :: 		while(1)
L_GSM_Begin48:
;Master.c,371 :: 		LCD_Cmd(0xc0);
	MOVLW       192
	MOVWF       FARG_Lcd_Cmd_out_char+0 
	CALL        _Lcd_Cmd+0, 0
;Master.c,372 :: 		UART1_Write_Text("ATE0\r"); /* send ATE0 to check module is ready or not */
	MOVLW       ?lstr54_Master+0
	MOVWF       FARG_UART1_Write_Text_uart_text+0 
	MOVLW       hi_addr(?lstr54_Master+0)
	MOVWF       FARG_UART1_Write_Text_uart_text+1 
	CALL        _UART1_Write_Text+0, 0
;Master.c,373 :: 		UART1_Write(0x0D);
	MOVLW       13
	MOVWF       FARG_UART1_Write_data_+0 
	CALL        _UART1_Write+0, 0
;Master.c,374 :: 		Delay_ms(500);
	MOVLW       11
	MOVWF       R11, 0
	MOVLW       38
	MOVWF       R12, 0
	MOVLW       93
	MOVWF       R13, 0
L_GSM_Begin50:
	DECFSZ      R13, 1, 1
	BRA         L_GSM_Begin50
	DECFSZ      R12, 1, 1
	BRA         L_GSM_Begin50
	DECFSZ      R11, 1, 1
	BRA         L_GSM_Begin50
	NOP
	NOP
;Master.c,375 :: 		if(strstr(buff,"OK"))
	MOVLW       _buff+0
	MOVWF       FARG_strstr_s1+0 
	MOVLW       hi_addr(_buff+0)
	MOVWF       FARG_strstr_s1+1 
	MOVLW       ?lstr55_Master+0
	MOVWF       FARG_strstr_s2+0 
	MOVLW       hi_addr(?lstr55_Master+0)
	MOVWF       FARG_strstr_s2+1 
	CALL        _strstr+0, 0
	MOVF        R0, 0 
	IORWF       R1, 0 
	BTFSC       STATUS+0, 2 
	GOTO        L_GSM_Begin51
;Master.c,377 :: 		GSM_Response();
	CALL        _GSM_Response+0, 0
;Master.c,378 :: 		memset(buff,0,160);
	MOVLW       _buff+0
	MOVWF       FARG_memset_p1+0 
	MOVLW       hi_addr(_buff+0)
	MOVWF       FARG_memset_p1+1 
	CLRF        FARG_memset_character+0 
	MOVLW       160
	MOVWF       FARG_memset_n+0 
	MOVLW       0
	MOVWF       FARG_memset_n+1 
	CALL        _memset+0, 0
;Master.c,379 :: 		break;
	GOTO        L_GSM_Begin49
;Master.c,380 :: 		}
L_GSM_Begin51:
;Master.c,383 :: 		Lcd_Out_CP("Error");
	MOVLW       ?lstr56_Master+0
	MOVWF       FARG_Lcd_Out_CP_text+0 
	MOVLW       hi_addr(?lstr56_Master+0)
	MOVWF       FARG_Lcd_Out_CP_text+1 
	CALL        _Lcd_Out_CP+0, 0
;Master.c,386 :: 		}
	GOTO        L_GSM_Begin48
L_GSM_Begin49:
;Master.c,388 :: 		Lcd_Cmd(_LCD_CLEAR);
	MOVLW       1
	MOVWF       FARG_Lcd_Cmd_out_char+0 
	CALL        _Lcd_Cmd+0, 0
;Master.c,389 :: 		Lcd_Out(1,1,"Text Mode");
	MOVLW       1
	MOVWF       FARG_Lcd_Out_row+0 
	MOVLW       1
	MOVWF       FARG_Lcd_Out_column+0 
	MOVLW       ?lstr57_Master+0
	MOVWF       FARG_Lcd_Out_text+0 
	MOVLW       hi_addr(?lstr57_Master+0)
	MOVWF       FARG_Lcd_Out_text+1 
	CALL        _Lcd_Out+0, 0
;Master.c,390 :: 		LCD_Cmd(0xc0);
	MOVLW       192
	MOVWF       FARG_Lcd_Cmd_out_char+0 
	CALL        _Lcd_Cmd+0, 0
;Master.c,391 :: 		UART1_Write_Text("AT+CMGF=1\r"); /* select message format as text */
	MOVLW       ?lstr58_Master+0
	MOVWF       FARG_UART1_Write_Text_uart_text+0 
	MOVLW       hi_addr(?lstr58_Master+0)
	MOVWF       FARG_UART1_Write_Text_uart_text+1 
	CALL        _UART1_Write_Text+0, 0
;Master.c,392 :: 		UART1_Write(0x0D);
	MOVLW       13
	MOVWF       FARG_UART1_Write_data_+0 
	CALL        _UART1_Write+0, 0
;Master.c,393 :: 		GSM_Response();
	CALL        _GSM_Response+0, 0
;Master.c,394 :: 		}
L_end_GSM_Begin:
	RETURN      0
; end of _GSM_Begin

_GSM_Msg_Delete:

;Master.c,396 :: 		void GSM_Msg_Delete(unsigned int position)
;Master.c,399 :: 		buffer_pointer=0;
	CLRF        _buffer_pointer+0 
	CLRF        _buffer_pointer+1 
;Master.c,402 :: 		sprintl(delete_cmd,"AT+CMGD=%d\r",position);
	MOVLW       GSM_Msg_Delete_delete_cmd_L0+0
	MOVWF       FARG_sprintl_wh+0 
	MOVLW       hi_addr(GSM_Msg_Delete_delete_cmd_L0+0)
	MOVWF       FARG_sprintl_wh+1 
	MOVLW       ?lstr_59_Master+0
	MOVWF       FARG_sprintl_f+0 
	MOVLW       hi_addr(?lstr_59_Master+0)
	MOVWF       FARG_sprintl_f+1 
	MOVLW       higher_addr(?lstr_59_Master+0)
	MOVWF       FARG_sprintl_f+2 
	MOVF        FARG_GSM_Msg_Delete_position+0, 0 
	MOVWF       FARG_sprintl_wh+5 
	MOVF        FARG_GSM_Msg_Delete_position+1, 0 
	MOVWF       FARG_sprintl_wh+6 
	CALL        _sprintl+0, 0
;Master.c,403 :: 		UART1_Write_Text(delete_cmd);
	MOVLW       GSM_Msg_Delete_delete_cmd_L0+0
	MOVWF       FARG_UART1_Write_Text_uart_text+0 
	MOVLW       hi_addr(GSM_Msg_Delete_delete_cmd_L0+0)
	MOVWF       FARG_UART1_Write_Text_uart_text+1 
	CALL        _UART1_Write_Text+0, 0
;Master.c,404 :: 		UART1_Write(0x0D);
	MOVLW       13
	MOVWF       FARG_UART1_Write_data_+0 
	CALL        _UART1_Write+0, 0
;Master.c,405 :: 		}
L_end_GSM_Msg_Delete:
	RETURN      0
; end of _GSM_Msg_Delete

_GSM_Delete_All_Msg:

;Master.c,407 :: 		void GSM_Delete_All_Msg()
;Master.c,409 :: 		UART1_Write_Text("AT+CMGDA=\"DEL ALL\"\r"); /* delete all messages of SIM */
	MOVLW       ?lstr60_Master+0
	MOVWF       FARG_UART1_Write_Text_uart_text+0 
	MOVLW       hi_addr(?lstr60_Master+0)
	MOVWF       FARG_UART1_Write_Text_uart_text+1 
	CALL        _UART1_Write_Text+0, 0
;Master.c,410 :: 		UART1_Write(0x0D);
	MOVLW       13
	MOVWF       FARG_UART1_Write_data_+0 
	CALL        _UART1_Write+0, 0
;Master.c,411 :: 		}
L_end_GSM_Delete_All_Msg:
	RETURN      0
; end of _GSM_Delete_All_Msg

_GSM_Wait_for_Msg:

;Master.c,413 :: 		bool GSM_Wait_for_Msg()
;Master.c,417 :: 		Delay_ms(500);
	MOVLW       11
	MOVWF       R11, 0
	MOVLW       38
	MOVWF       R12, 0
	MOVLW       93
	MOVWF       R13, 0
L_GSM_Wait_for_Msg53:
	DECFSZ      R13, 1, 1
	BRA         L_GSM_Wait_for_Msg53
	DECFSZ      R12, 1, 1
	BRA         L_GSM_Wait_for_Msg53
	DECFSZ      R11, 1, 1
	BRA         L_GSM_Wait_for_Msg53
	NOP
	NOP
;Master.c,418 :: 		buffer_pointer=0;
	CLRF        _buffer_pointer+0 
	CLRF        _buffer_pointer+1 
;Master.c,420 :: 		while(1)
L_GSM_Wait_for_Msg54:
;Master.c,424 :: 		if(buff[buffer_pointer]=='\r' || buff[buffer_pointer]== '\n'){
	MOVLW       _buff+0
	ADDWF       _buffer_pointer+0, 0 
	MOVWF       FSR0 
	MOVLW       hi_addr(_buff+0)
	ADDWFC      _buffer_pointer+1, 0 
	MOVWF       FSR0H 
	MOVF        POSTINC0+0, 0 
	XORLW       13
	BTFSC       STATUS+0, 2 
	GOTO        L__GSM_Wait_for_Msg141
	MOVLW       _buff+0
	ADDWF       _buffer_pointer+0, 0 
	MOVWF       FSR0 
	MOVLW       hi_addr(_buff+0)
	ADDWFC      _buffer_pointer+1, 0 
	MOVWF       FSR0H 
	MOVF        POSTINC0+0, 0 
	XORLW       10
	BTFSC       STATUS+0, 2 
	GOTO        L__GSM_Wait_for_Msg141
	GOTO        L_GSM_Wait_for_Msg58
L__GSM_Wait_for_Msg141:
;Master.c,425 :: 		buffer_pointer++;
	MOVLW       1
	ADDWF       _buffer_pointer+0, 0 
	MOVWF       R0 
	MOVLW       0
	ADDWFC      _buffer_pointer+1, 0 
	MOVWF       R1 
	MOVF        R0, 0 
	MOVWF       _buffer_pointer+0 
	MOVF        R1, 0 
	MOVWF       _buffer_pointer+1 
;Master.c,426 :: 		}
	GOTO        L_GSM_Wait_for_Msg59
L_GSM_Wait_for_Msg58:
;Master.c,428 :: 		break;
	GOTO        L_GSM_Wait_for_Msg55
L_GSM_Wait_for_Msg59:
;Master.c,429 :: 		}
	GOTO        L_GSM_Wait_for_Msg54
L_GSM_Wait_for_Msg55:
;Master.c,433 :: 		if(strstr(buff,"CMTI:")){
	MOVLW       _buff+0
	MOVWF       FARG_strstr_s1+0 
	MOVLW       hi_addr(_buff+0)
	MOVWF       FARG_strstr_s1+1 
	MOVLW       ?lstr61_Master+0
	MOVWF       FARG_strstr_s2+0 
	MOVLW       hi_addr(?lstr61_Master+0)
	MOVWF       FARG_strstr_s2+1 
	CALL        _strstr+0, 0
	MOVF        R0, 0 
	IORWF       R1, 0 
	BTFSC       STATUS+0, 2 
	GOTO        L_GSM_Wait_for_Msg60
;Master.c,434 :: 		while(buff[buffer_pointer]!= ',')
L_GSM_Wait_for_Msg61:
	MOVLW       _buff+0
	ADDWF       _buffer_pointer+0, 0 
	MOVWF       FSR0 
	MOVLW       hi_addr(_buff+0)
	ADDWFC      _buffer_pointer+1, 0 
	MOVWF       FSR0H 
	MOVF        POSTINC0+0, 0 
	XORLW       44
	BTFSC       STATUS+0, 2 
	GOTO        L_GSM_Wait_for_Msg62
;Master.c,436 :: 		buffer_pointer++;
	MOVLW       1
	ADDWF       _buffer_pointer+0, 0 
	MOVWF       R0 
	MOVLW       0
	ADDWFC      _buffer_pointer+1, 0 
	MOVWF       R1 
	MOVF        R0, 0 
	MOVWF       _buffer_pointer+0 
	MOVF        R1, 0 
	MOVWF       _buffer_pointer+1 
;Master.c,437 :: 		}
	GOTO        L_GSM_Wait_for_Msg61
L_GSM_Wait_for_Msg62:
;Master.c,438 :: 		buffer_pointer++;
	MOVLW       1
	ADDWF       _buffer_pointer+0, 0 
	MOVWF       R0 
	MOVLW       0
	ADDWFC      _buffer_pointer+1, 0 
	MOVWF       R1 
	MOVF        R0, 0 
	MOVWF       _buffer_pointer+0 
	MOVF        R1, 0 
	MOVWF       _buffer_pointer+1 
;Master.c,440 :: 		i=0;
	CLRF        GSM_Wait_for_Msg_i_L0+0 
	CLRF        GSM_Wait_for_Msg_i_L0+1 
;Master.c,441 :: 		while(buff[buffer_pointer]!= '\r')
L_GSM_Wait_for_Msg63:
	MOVLW       _buff+0
	ADDWF       _buffer_pointer+0, 0 
	MOVWF       FSR0 
	MOVLW       hi_addr(_buff+0)
	ADDWFC      _buffer_pointer+1, 0 
	MOVWF       FSR0H 
	MOVF        POSTINC0+0, 0 
	XORLW       13
	BTFSC       STATUS+0, 2 
	GOTO        L_GSM_Wait_for_Msg64
;Master.c,443 :: 		msg_location[i]=buff[buffer_pointer];
	MOVLW       GSM_Wait_for_Msg_msg_location_L0+0
	ADDWF       GSM_Wait_for_Msg_i_L0+0, 0 
	MOVWF       FSR1 
	MOVLW       hi_addr(GSM_Wait_for_Msg_msg_location_L0+0)
	ADDWFC      GSM_Wait_for_Msg_i_L0+1, 0 
	MOVWF       FSR1H 
	MOVLW       _buff+0
	ADDWF       _buffer_pointer+0, 0 
	MOVWF       FSR0 
	MOVLW       hi_addr(_buff+0)
	ADDWFC      _buffer_pointer+1, 0 
	MOVWF       FSR0H 
	MOVF        POSTINC0+0, 0 
	MOVWF       POSTINC1+0 
;Master.c,444 :: 		buffer_pointer++;
	MOVLW       1
	ADDWF       _buffer_pointer+0, 0 
	MOVWF       R0 
	MOVLW       0
	ADDWFC      _buffer_pointer+1, 0 
	MOVWF       R1 
	MOVF        R0, 0 
	MOVWF       _buffer_pointer+0 
	MOVF        R1, 0 
	MOVWF       _buffer_pointer+1 
;Master.c,445 :: 		i++;
	INFSNZ      GSM_Wait_for_Msg_i_L0+0, 1 
	INCF        GSM_Wait_for_Msg_i_L0+1, 1 
;Master.c,446 :: 		}
	GOTO        L_GSM_Wait_for_Msg63
L_GSM_Wait_for_Msg64:
;Master.c,449 :: 		position = atoi(msg_location);
	MOVLW       GSM_Wait_for_Msg_msg_location_L0+0
	MOVWF       FARG_atoi_s+0 
	MOVLW       hi_addr(GSM_Wait_for_Msg_msg_location_L0+0)
	MOVWF       FARG_atoi_s+1 
	CALL        _atoi+0, 0
	MOVF        R0, 0 
	MOVWF       _position+0 
	MOVF        R1, 0 
	MOVWF       _position+1 
;Master.c,451 :: 		memset(buff,0,strlen(buff));
	MOVLW       _buff+0
	MOVWF       FARG_strlen_s+0 
	MOVLW       hi_addr(_buff+0)
	MOVWF       FARG_strlen_s+1 
	CALL        _strlen+0, 0
	MOVF        R0, 0 
	MOVWF       FARG_memset_n+0 
	MOVF        R1, 0 
	MOVWF       FARG_memset_n+1 
	MOVLW       _buff+0
	MOVWF       FARG_memset_p1+0 
	MOVLW       hi_addr(_buff+0)
	MOVWF       FARG_memset_p1+1 
	CLRF        FARG_memset_character+0 
	CALL        _memset+0, 0
;Master.c,452 :: 		buffer_pointer=0;
	CLRF        _buffer_pointer+0 
	CLRF        _buffer_pointer+1 
;Master.c,454 :: 		return true;
	MOVLW       1
	MOVWF       R0 
	GOTO        L_end_GSM_Wait_for_Msg
;Master.c,455 :: 		}
L_GSM_Wait_for_Msg60:
;Master.c,458 :: 		return false;
	CLRF        R0 
;Master.c,460 :: 		}
L_end_GSM_Wait_for_Msg:
	RETURN      0
; end of _GSM_Wait_for_Msg

_GSM_Send_Msg:

;Master.c,463 :: 		void GSM_Send_Msg(char *num,char *sms)
;Master.c,466 :: 		buffer_pointer=0;
	CLRF        _buffer_pointer+0 
	CLRF        _buffer_pointer+1 
;Master.c,467 :: 		sprintl(sms_buffer,"AT+CMGS=\"%s\"\r",num);
	MOVLW       GSM_Send_Msg_sms_buffer_L0+0
	MOVWF       FARG_sprintl_wh+0 
	MOVLW       hi_addr(GSM_Send_Msg_sms_buffer_L0+0)
	MOVWF       FARG_sprintl_wh+1 
	MOVLW       ?lstr_62_Master+0
	MOVWF       FARG_sprintl_f+0 
	MOVLW       hi_addr(?lstr_62_Master+0)
	MOVWF       FARG_sprintl_f+1 
	MOVLW       higher_addr(?lstr_62_Master+0)
	MOVWF       FARG_sprintl_f+2 
	MOVF        FARG_GSM_Send_Msg_num+0, 0 
	MOVWF       FARG_sprintl_wh+5 
	MOVF        FARG_GSM_Send_Msg_num+1, 0 
	MOVWF       FARG_sprintl_wh+6 
	CALL        _sprintl+0, 0
;Master.c,468 :: 		UART1_Write_Text(sms_buffer); /*send command AT+CMGS="Mobile No."\r */
	MOVLW       GSM_Send_Msg_sms_buffer_L0+0
	MOVWF       FARG_UART1_Write_Text_uart_text+0 
	MOVLW       hi_addr(GSM_Send_Msg_sms_buffer_L0+0)
	MOVWF       FARG_UART1_Write_Text_uart_text+1 
	CALL        _UART1_Write_Text+0, 0
;Master.c,469 :: 		UART1_Write(0x0D);
	MOVLW       13
	MOVWF       FARG_UART1_Write_data_+0 
	CALL        _UART1_Write+0, 0
;Master.c,470 :: 		Delay_ms(200);
	MOVLW       5
	MOVWF       R11, 0
	MOVLW       15
	MOVWF       R12, 0
	MOVLW       241
	MOVWF       R13, 0
L_GSM_Send_Msg66:
	DECFSZ      R13, 1, 1
	BRA         L_GSM_Send_Msg66
	DECFSZ      R12, 1, 1
	BRA         L_GSM_Send_Msg66
	DECFSZ      R11, 1, 1
	BRA         L_GSM_Send_Msg66
;Master.c,471 :: 		while(1)
L_GSM_Send_Msg67:
;Master.c,473 :: 		if(buff[buffer_pointer]==0x3E) /* wait for '>' character*/
	MOVLW       _buff+0
	ADDWF       _buffer_pointer+0, 0 
	MOVWF       FSR0 
	MOVLW       hi_addr(_buff+0)
	ADDWFC      _buffer_pointer+1, 0 
	MOVWF       FSR0H 
	MOVF        POSTINC0+0, 0 
	XORLW       62
	BTFSS       STATUS+0, 2 
	GOTO        L_GSM_Send_Msg69
;Master.c,475 :: 		buffer_pointer = 0;
	CLRF        _buffer_pointer+0 
	CLRF        _buffer_pointer+1 
;Master.c,476 :: 		memset(buff,0,strlen(buff));
	MOVLW       _buff+0
	MOVWF       FARG_strlen_s+0 
	MOVLW       hi_addr(_buff+0)
	MOVWF       FARG_strlen_s+1 
	CALL        _strlen+0, 0
	MOVF        R0, 0 
	MOVWF       FARG_memset_n+0 
	MOVF        R1, 0 
	MOVWF       FARG_memset_n+1 
	MOVLW       _buff+0
	MOVWF       FARG_memset_p1+0 
	MOVLW       hi_addr(_buff+0)
	MOVWF       FARG_memset_p1+1 
	CLRF        FARG_memset_character+0 
	CALL        _memset+0, 0
;Master.c,477 :: 		UART1_Write_Text(sms); /* send msg to given no. */
	MOVF        FARG_GSM_Send_Msg_sms+0, 0 
	MOVWF       FARG_UART1_Write_Text_uart_text+0 
	MOVF        FARG_GSM_Send_Msg_sms+1, 0 
	MOVWF       FARG_UART1_Write_Text_uart_text+1 
	CALL        _UART1_Write_Text+0, 0
;Master.c,478 :: 		UART1_Write(0x0D);
	MOVLW       13
	MOVWF       FARG_UART1_Write_data_+0 
	CALL        _UART1_Write+0, 0
;Master.c,479 :: 		UART1_Write(0x1A); /* send Ctrl+Z */
	MOVLW       26
	MOVWF       FARG_UART1_Write_data_+0 
	CALL        _UART1_Write+0, 0
;Master.c,480 :: 		break;
	GOTO        L_GSM_Send_Msg68
;Master.c,481 :: 		}
L_GSM_Send_Msg69:
;Master.c,482 :: 		buffer_pointer++;
	MOVLW       1
	ADDWF       _buffer_pointer+0, 0 
	MOVWF       R0 
	MOVLW       0
	ADDWFC      _buffer_pointer+1, 0 
	MOVWF       R1 
	MOVF        R0, 0 
	MOVWF       _buffer_pointer+0 
	MOVF        R1, 0 
	MOVWF       _buffer_pointer+1 
;Master.c,483 :: 		}
	GOTO        L_GSM_Send_Msg67
L_GSM_Send_Msg68:
;Master.c,484 :: 		Delay_ms(300);
	MOVLW       7
	MOVWF       R11, 0
	MOVLW       23
	MOVWF       R12, 0
	MOVLW       106
	MOVWF       R13, 0
L_GSM_Send_Msg70:
	DECFSZ      R13, 1, 1
	BRA         L_GSM_Send_Msg70
	DECFSZ      R12, 1, 1
	BRA         L_GSM_Send_Msg70
	DECFSZ      R11, 1, 1
	BRA         L_GSM_Send_Msg70
	NOP
;Master.c,485 :: 		buffer_pointer = 0;
	CLRF        _buffer_pointer+0 
	CLRF        _buffer_pointer+1 
;Master.c,486 :: 		memset(buff,0,strlen(buff));
	MOVLW       _buff+0
	MOVWF       FARG_strlen_s+0 
	MOVLW       hi_addr(_buff+0)
	MOVWF       FARG_strlen_s+1 
	CALL        _strlen+0, 0
	MOVF        R0, 0 
	MOVWF       FARG_memset_n+0 
	MOVF        R1, 0 
	MOVWF       FARG_memset_n+1 
	MOVLW       _buff+0
	MOVWF       FARG_memset_p1+0 
	MOVLW       hi_addr(_buff+0)
	MOVWF       FARG_memset_p1+1 
	CLRF        FARG_memset_character+0 
	CALL        _memset+0, 0
;Master.c,487 :: 		memset(sms_buffer,0,strlen(sms_buffer));
	MOVLW       GSM_Send_Msg_sms_buffer_L0+0
	MOVWF       FARG_strlen_s+0 
	MOVLW       hi_addr(GSM_Send_Msg_sms_buffer_L0+0)
	MOVWF       FARG_strlen_s+1 
	CALL        _strlen+0, 0
	MOVF        R0, 0 
	MOVWF       FARG_memset_n+0 
	MOVF        R1, 0 
	MOVWF       FARG_memset_n+1 
	MOVLW       GSM_Send_Msg_sms_buffer_L0+0
	MOVWF       FARG_memset_p1+0 
	MOVLW       hi_addr(GSM_Send_Msg_sms_buffer_L0+0)
	MOVWF       FARG_memset_p1+1 
	CLRF        FARG_memset_character+0 
	CALL        _memset+0, 0
;Master.c,488 :: 		}
L_end_GSM_Send_Msg:
	RETURN      0
; end of _GSM_Send_Msg

_GSM_Calling:

;Master.c,490 :: 		void GSM_Calling(char *Mob_no)
;Master.c,493 :: 		sprintl(call,"ATD%s;\r",Mob_no);
	MOVLW       GSM_Calling_call_L0+0
	MOVWF       FARG_sprintl_wh+0 
	MOVLW       hi_addr(GSM_Calling_call_L0+0)
	MOVWF       FARG_sprintl_wh+1 
	MOVLW       ?lstr_63_Master+0
	MOVWF       FARG_sprintl_f+0 
	MOVLW       hi_addr(?lstr_63_Master+0)
	MOVWF       FARG_sprintl_f+1 
	MOVLW       higher_addr(?lstr_63_Master+0)
	MOVWF       FARG_sprintl_f+2 
	MOVF        FARG_GSM_Calling_Mob_no+0, 0 
	MOVWF       FARG_sprintl_wh+5 
	MOVF        FARG_GSM_Calling_Mob_no+1, 0 
	MOVWF       FARG_sprintl_wh+6 
	CALL        _sprintl+0, 0
;Master.c,494 :: 		UART1_Write_Text(call);        /* send command ATD<Mobile_No>; for calling*/
	MOVLW       GSM_Calling_call_L0+0
	MOVWF       FARG_UART1_Write_Text_uart_text+0 
	MOVLW       hi_addr(GSM_Calling_call_L0+0)
	MOVWF       FARG_UART1_Write_Text_uart_text+1 
	CALL        _UART1_Write_Text+0, 0
;Master.c,495 :: 		UART1_Write(0x0D);
	MOVLW       13
	MOVWF       FARG_UART1_Write_data_+0 
	CALL        _UART1_Write+0, 0
;Master.c,496 :: 		}
L_end_GSM_Calling:
	RETURN      0
; end of _GSM_Calling

_GSM_HangCall:

;Master.c,498 :: 		void GSM_HangCall()
;Master.c,500 :: 		Lcd_Cmd(_LCD_CLEAR);
	MOVLW       1
	MOVWF       FARG_Lcd_Cmd_out_char+0 
	CALL        _Lcd_Cmd+0, 0
;Master.c,501 :: 		UART1_Write_Text("ATH\r");        /*send command ATH\r to hang call*/
	MOVLW       ?lstr64_Master+0
	MOVWF       FARG_UART1_Write_Text_uart_text+0 
	MOVLW       hi_addr(?lstr64_Master+0)
	MOVWF       FARG_UART1_Write_Text_uart_text+1 
	CALL        _UART1_Write_Text+0, 0
;Master.c,502 :: 		UART1_Write(0x0D);
	MOVLW       13
	MOVWF       FARG_UART1_Write_data_+0 
	CALL        _UART1_Write+0, 0
;Master.c,503 :: 		}
L_end_GSM_HangCall:
	RETURN      0
; end of _GSM_HangCall

_GSM_Response:

;Master.c,505 :: 		void GSM_Response()
;Master.c,507 :: 		unsigned int timeout=0;
	CLRF        GSM_Response_timeout_L0+0 
	CLRF        GSM_Response_timeout_L0+1 
	CLRF        GSM_Response_CRLF_Found_L0+0 
	CLRF        GSM_Response_CRLF_Found_L0+1 
	CLRF        GSM_Response_Response_Length_L0+0 
	CLRF        GSM_Response_Response_Length_L0+1 
;Master.c,511 :: 		while(1)
L_GSM_Response71:
;Master.c,513 :: 		if(timeout>=60000)          /*if timeout occur then return */
	MOVLW       234
	SUBWF       GSM_Response_timeout_L0+1, 0 
	BTFSS       STATUS+0, 2 
	GOTO        L__GSM_Response165
	MOVLW       96
	SUBWF       GSM_Response_timeout_L0+0, 0 
L__GSM_Response165:
	BTFSS       STATUS+0, 0 
	GOTO        L_GSM_Response73
;Master.c,514 :: 		return;
	GOTO        L_end_GSM_Response
L_GSM_Response73:
;Master.c,515 :: 		Response_Length = strlen(buff);
	MOVLW       _buff+0
	MOVWF       FARG_strlen_s+0 
	MOVLW       hi_addr(_buff+0)
	MOVWF       FARG_strlen_s+1 
	CALL        _strlen+0, 0
	MOVF        R0, 0 
	MOVWF       GSM_Response_Response_Length_L0+0 
	MOVF        R1, 0 
	MOVWF       GSM_Response_Response_Length_L0+1 
;Master.c,516 :: 		if(Response_Length)
	MOVF        R0, 0 
	IORWF       R1, 0 
	BTFSC       STATUS+0, 2 
	GOTO        L_GSM_Response74
;Master.c,518 :: 		Delay_ms(2);
	MOVLW       11
	MOVWF       R12, 0
	MOVLW       98
	MOVWF       R13, 0
L_GSM_Response75:
	DECFSZ      R13, 1, 1
	BRA         L_GSM_Response75
	DECFSZ      R12, 1, 1
	BRA         L_GSM_Response75
	NOP
;Master.c,519 :: 		timeout++;
	INFSNZ      GSM_Response_timeout_L0+0, 1 
	INCF        GSM_Response_timeout_L0+1, 1 
;Master.c,520 :: 		if(Response_Length==strlen(buff))
	MOVLW       _buff+0
	MOVWF       FARG_strlen_s+0 
	MOVLW       hi_addr(_buff+0)
	MOVWF       FARG_strlen_s+1 
	CALL        _strlen+0, 0
	MOVF        GSM_Response_Response_Length_L0+1, 0 
	XORWF       R1, 0 
	BTFSS       STATUS+0, 2 
	GOTO        L__GSM_Response166
	MOVF        R0, 0 
	XORWF       GSM_Response_Response_Length_L0+0, 0 
L__GSM_Response166:
	BTFSS       STATUS+0, 2 
	GOTO        L_GSM_Response76
;Master.c,522 :: 		for(i=0;i<Response_Length;i++)
	CLRF        GSM_Response_i_L0+0 
	CLRF        GSM_Response_i_L0+1 
L_GSM_Response77:
	MOVLW       128
	XORWF       GSM_Response_i_L0+1, 0 
	MOVWF       R0 
	MOVLW       128
	XORWF       GSM_Response_Response_Length_L0+1, 0 
	SUBWF       R0, 0 
	BTFSS       STATUS+0, 2 
	GOTO        L__GSM_Response167
	MOVF        GSM_Response_Response_Length_L0+0, 0 
	SUBWF       GSM_Response_i_L0+0, 0 
L__GSM_Response167:
	BTFSC       STATUS+0, 0 
	GOTO        L_GSM_Response78
;Master.c,524 :: 		memmove(CRLF_buff,CRLF_buff+1,1);
	MOVLW       GSM_Response_CRLF_buff_L0+0
	MOVWF       FARG_memmove_to+0 
	MOVLW       hi_addr(GSM_Response_CRLF_buff_L0+0)
	MOVWF       FARG_memmove_to+1 
	MOVLW       GSM_Response_CRLF_buff_L0+1
	MOVWF       FARG_memmove_from+0 
	MOVLW       hi_addr(GSM_Response_CRLF_buff_L0+1)
	MOVWF       FARG_memmove_from+1 
	MOVLW       1
	MOVWF       FARG_memmove_n+0 
	MOVLW       0
	MOVWF       FARG_memmove_n+1 
	CALL        _memmove+0, 0
;Master.c,525 :: 		CRLF_buff[1]=buff[i];
	MOVLW       _buff+0
	ADDWF       GSM_Response_i_L0+0, 0 
	MOVWF       FSR0 
	MOVLW       hi_addr(_buff+0)
	ADDWFC      GSM_Response_i_L0+1, 0 
	MOVWF       FSR0H 
	MOVF        POSTINC0+0, 0 
	MOVWF       GSM_Response_CRLF_buff_L0+1 
;Master.c,526 :: 		if(strncmp(CRLF_buff,"\r\n",2))
	MOVLW       GSM_Response_CRLF_buff_L0+0
	MOVWF       FARG_strncmp_s1+0 
	MOVLW       hi_addr(GSM_Response_CRLF_buff_L0+0)
	MOVWF       FARG_strncmp_s1+1 
	MOVLW       ?lstr65_Master+0
	MOVWF       FARG_strncmp_s2+0 
	MOVLW       hi_addr(?lstr65_Master+0)
	MOVWF       FARG_strncmp_s2+1 
	MOVLW       2
	MOVWF       FARG_strncmp_len+0 
	CALL        _strncmp+0, 0
	MOVF        R0, 0 
	IORWF       R1, 0 
	BTFSC       STATUS+0, 2 
	GOTO        L_GSM_Response80
;Master.c,528 :: 		if(CRLF_Found++==2)                                                                    /* search for \r\n in string */
	MOVF        GSM_Response_CRLF_Found_L0+0, 0 
	MOVWF       R1 
	MOVF        GSM_Response_CRLF_Found_L0+1, 0 
	MOVWF       R2 
	INFSNZ      GSM_Response_CRLF_Found_L0+0, 1 
	INCF        GSM_Response_CRLF_Found_L0+1, 1 
	MOVLW       0
	XORWF       R2, 0 
	BTFSS       STATUS+0, 2 
	GOTO        L__GSM_Response168
	MOVLW       2
	XORWF       R1, 0 
L__GSM_Response168:
	BTFSS       STATUS+0, 2 
	GOTO        L_GSM_Response81
;Master.c,530 :: 		GSM_Response_Display();
	CALL        _GSM_Response_Display+0, 0
;Master.c,531 :: 		return;
	GOTO        L_end_GSM_Response
;Master.c,532 :: 		}
L_GSM_Response81:
;Master.c,533 :: 		}
L_GSM_Response80:
;Master.c,522 :: 		for(i=0;i<Response_Length;i++)
	INFSNZ      GSM_Response_i_L0+0, 1 
	INCF        GSM_Response_i_L0+1, 1 
;Master.c,535 :: 		}
	GOTO        L_GSM_Response77
L_GSM_Response78:
;Master.c,536 :: 		CRLF_Found = 0;
	CLRF        GSM_Response_CRLF_Found_L0+0 
	CLRF        GSM_Response_CRLF_Found_L0+1 
;Master.c,538 :: 		}
L_GSM_Response76:
;Master.c,540 :: 		}
L_GSM_Response74:
;Master.c,541 :: 		Delay_ms(1);
	MOVLW       6
	MOVWF       R12, 0
	MOVLW       48
	MOVWF       R13, 0
L_GSM_Response82:
	DECFSZ      R13, 1, 1
	BRA         L_GSM_Response82
	DECFSZ      R12, 1, 1
	BRA         L_GSM_Response82
	NOP
;Master.c,542 :: 		timeout++;
	INFSNZ      GSM_Response_timeout_L0+0, 1 
	INCF        GSM_Response_timeout_L0+1, 1 
;Master.c,543 :: 		}
	GOTO        L_GSM_Response71
;Master.c,545 :: 		}
L_end_GSM_Response:
	RETURN      0
; end of _GSM_Response

_GSM_Response_Display:

;Master.c,547 :: 		void GSM_Response_Display()
;Master.c,549 :: 		int lcd_pointer = 0;
	CLRF        GSM_Response_Display_lcd_pointer_L0+0 
	CLRF        GSM_Response_Display_lcd_pointer_L0+1 
;Master.c,550 :: 		buffer_pointer = 0;
	CLRF        _buffer_pointer+0 
	CLRF        _buffer_pointer+1 
;Master.c,551 :: 		while(1)
L_GSM_Response_Display83:
;Master.c,554 :: 		if(buff[buffer_pointer]== '\r' || buff[buffer_pointer]== '\n')
	MOVLW       _buff+0
	ADDWF       _buffer_pointer+0, 0 
	MOVWF       FSR0 
	MOVLW       hi_addr(_buff+0)
	ADDWFC      _buffer_pointer+1, 0 
	MOVWF       FSR0H 
	MOVF        POSTINC0+0, 0 
	XORLW       13
	BTFSC       STATUS+0, 2 
	GOTO        L__GSM_Response_Display142
	MOVLW       _buff+0
	ADDWF       _buffer_pointer+0, 0 
	MOVWF       FSR0 
	MOVLW       hi_addr(_buff+0)
	ADDWFC      _buffer_pointer+1, 0 
	MOVWF       FSR0H 
	MOVF        POSTINC0+0, 0 
	XORLW       10
	BTFSC       STATUS+0, 2 
	GOTO        L__GSM_Response_Display142
	GOTO        L_GSM_Response_Display87
L__GSM_Response_Display142:
;Master.c,556 :: 		buffer_pointer++;
	MOVLW       1
	ADDWF       _buffer_pointer+0, 0 
	MOVWF       R0 
	MOVLW       0
	ADDWFC      _buffer_pointer+1, 0 
	MOVWF       R1 
	MOVF        R0, 0 
	MOVWF       _buffer_pointer+0 
	MOVF        R1, 0 
	MOVWF       _buffer_pointer+1 
;Master.c,557 :: 		}
	GOTO        L_GSM_Response_Display88
L_GSM_Response_Display87:
;Master.c,559 :: 		break;
	GOTO        L_GSM_Response_Display84
L_GSM_Response_Display88:
;Master.c,560 :: 		}
	GOTO        L_GSM_Response_Display83
L_GSM_Response_Display84:
;Master.c,563 :: 		LCD_Cmd(0xc0);
	MOVLW       192
	MOVWF       FARG_Lcd_Cmd_out_char+0 
	CALL        _Lcd_Cmd+0, 0
;Master.c,564 :: 		while(buff[buffer_pointer]!='\r')             /* display response till "\r" */
L_GSM_Response_Display89:
	MOVLW       _buff+0
	ADDWF       _buffer_pointer+0, 0 
	MOVWF       FSR0 
	MOVLW       hi_addr(_buff+0)
	ADDWFC      _buffer_pointer+1, 0 
	MOVWF       FSR0H 
	MOVF        POSTINC0+0, 0 
	XORLW       13
	BTFSC       STATUS+0, 2 
	GOTO        L_GSM_Response_Display90
;Master.c,566 :: 		Lcd_Chr_CP(buff[buffer_pointer]);
	MOVLW       _buff+0
	ADDWF       _buffer_pointer+0, 0 
	MOVWF       FSR0 
	MOVLW       hi_addr(_buff+0)
	ADDWFC      _buffer_pointer+1, 0 
	MOVWF       FSR0H 
	MOVF        POSTINC0+0, 0 
	MOVWF       FARG_Lcd_Chr_CP_out_char+0 
	CALL        _Lcd_Chr_CP+0, 0
;Master.c,567 :: 		buffer_pointer++;
	MOVLW       1
	ADDWF       _buffer_pointer+0, 0 
	MOVWF       R0 
	MOVLW       0
	ADDWFC      _buffer_pointer+1, 0 
	MOVWF       R1 
	MOVF        R0, 0 
	MOVWF       _buffer_pointer+0 
	MOVF        R1, 0 
	MOVWF       _buffer_pointer+1 
;Master.c,568 :: 		lcd_pointer++;
	INFSNZ      GSM_Response_Display_lcd_pointer_L0+0, 1 
	INCF        GSM_Response_Display_lcd_pointer_L0+1, 1 
;Master.c,569 :: 		if(lcd_pointer==15)        /* check for end of LCD line */
	MOVLW       0
	XORWF       GSM_Response_Display_lcd_pointer_L0+1, 0 
	BTFSS       STATUS+0, 2 
	GOTO        L__GSM_Response_Display170
	MOVLW       15
	XORWF       GSM_Response_Display_lcd_pointer_L0+0, 0 
L__GSM_Response_Display170:
	BTFSS       STATUS+0, 2 
	GOTO        L_GSM_Response_Display91
;Master.c,570 :: 		LCD_Cmd(0x80);
	MOVLW       128
	MOVWF       FARG_Lcd_Cmd_out_char+0 
	CALL        _Lcd_Cmd+0, 0
L_GSM_Response_Display91:
;Master.c,571 :: 		}
	GOTO        L_GSM_Response_Display89
L_GSM_Response_Display90:
;Master.c,572 :: 		buffer_pointer = 0;
	CLRF        _buffer_pointer+0 
	CLRF        _buffer_pointer+1 
;Master.c,573 :: 		memset(buff,0,strlen(buff));
	MOVLW       _buff+0
	MOVWF       FARG_strlen_s+0 
	MOVLW       hi_addr(_buff+0)
	MOVWF       FARG_strlen_s+1 
	CALL        _strlen+0, 0
	MOVF        R0, 0 
	MOVWF       FARG_memset_n+0 
	MOVF        R1, 0 
	MOVWF       FARG_memset_n+1 
	MOVLW       _buff+0
	MOVWF       FARG_memset_p1+0 
	MOVLW       hi_addr(_buff+0)
	MOVWF       FARG_memset_p1+1 
	CLRF        FARG_memset_character+0 
	CALL        _memset+0, 0
;Master.c,574 :: 		}
L_end_GSM_Response_Display:
	RETURN      0
; end of _GSM_Response_Display

_GSM_Msg_Read:

;Master.c,576 :: 		void GSM_Msg_Read(int position)
;Master.c,579 :: 		sprintl(read_cmd,"AT+CMGR=%d\r",position);
	MOVLW       GSM_Msg_Read_read_cmd_L0+0
	MOVWF       FARG_sprintl_wh+0 
	MOVLW       hi_addr(GSM_Msg_Read_read_cmd_L0+0)
	MOVWF       FARG_sprintl_wh+1 
	MOVLW       ?lstr_66_Master+0
	MOVWF       FARG_sprintl_f+0 
	MOVLW       hi_addr(?lstr_66_Master+0)
	MOVWF       FARG_sprintl_f+1 
	MOVLW       higher_addr(?lstr_66_Master+0)
	MOVWF       FARG_sprintl_f+2 
	MOVF        FARG_GSM_Msg_Read_position+0, 0 
	MOVWF       FARG_sprintl_wh+5 
	MOVF        FARG_GSM_Msg_Read_position+1, 0 
	MOVWF       FARG_sprintl_wh+6 
	CALL        _sprintl+0, 0
;Master.c,580 :: 		UART1_Write_Text(read_cmd);        /* read message at specified location/position */
	MOVLW       GSM_Msg_Read_read_cmd_L0+0
	MOVWF       FARG_UART1_Write_Text_uart_text+0 
	MOVLW       hi_addr(GSM_Msg_Read_read_cmd_L0+0)
	MOVWF       FARG_UART1_Write_Text_uart_text+1 
	CALL        _UART1_Write_Text+0, 0
;Master.c,581 :: 		UART1_Write(0x0D);
	MOVLW       13
	MOVWF       FARG_UART1_Write_data_+0 
	CALL        _UART1_Write+0, 0
;Master.c,582 :: 		GSM_Msg_Display();        /* display message */
	CALL        _GSM_Msg_Display+0, 0
;Master.c,583 :: 		}
L_end_GSM_Msg_Read:
	RETURN      0
; end of _GSM_Msg_Read

_GSM_Msg_Display:

;Master.c,585 :: 		void GSM_Msg_Display()
;Master.c,587 :: 		Delay_ms(500);
	MOVLW       11
	MOVWF       R11, 0
	MOVLW       38
	MOVWF       R12, 0
	MOVLW       93
	MOVWF       R13, 0
L_GSM_Msg_Display92:
	DECFSZ      R13, 1, 1
	BRA         L_GSM_Msg_Display92
	DECFSZ      R12, 1, 1
	BRA         L_GSM_Msg_Display92
	DECFSZ      R11, 1, 1
	BRA         L_GSM_Msg_Display92
	NOP
	NOP
;Master.c,588 :: 		if(!(strstr(buff,"+CMGR")))        /*check for +CMGR response */
	MOVLW       _buff+0
	MOVWF       FARG_strstr_s1+0 
	MOVLW       hi_addr(_buff+0)
	MOVWF       FARG_strstr_s1+1 
	MOVLW       ?lstr67_Master+0
	MOVWF       FARG_strstr_s2+0 
	MOVLW       hi_addr(?lstr67_Master+0)
	MOVWF       FARG_strstr_s2+1 
	CALL        _strstr+0, 0
	MOVF        R0, 0 
	IORWF       R1, 0 
	BTFSS       STATUS+0, 2 
	GOTO        L_GSM_Msg_Display93
;Master.c,590 :: 		Lcd_Out(1,1,"No message");
	MOVLW       1
	MOVWF       FARG_Lcd_Out_row+0 
	MOVLW       1
	MOVWF       FARG_Lcd_Out_column+0 
	MOVLW       ?lstr68_Master+0
	MOVWF       FARG_Lcd_Out_text+0 
	MOVLW       hi_addr(?lstr68_Master+0)
	MOVWF       FARG_Lcd_Out_text+1 
	CALL        _Lcd_Out+0, 0
;Master.c,591 :: 		}
	GOTO        L_GSM_Msg_Display94
L_GSM_Msg_Display93:
;Master.c,594 :: 		buffer_pointer = 0;
	CLRF        _buffer_pointer+0 
	CLRF        _buffer_pointer+1 
;Master.c,596 :: 		while(1)
L_GSM_Msg_Display95:
;Master.c,600 :: 		if(buff[buffer_pointer]=='\r' || buff[buffer_pointer]== 'n')                                         {
	MOVLW       _buff+0
	ADDWF       _buffer_pointer+0, 0 
	MOVWF       FSR0 
	MOVLW       hi_addr(_buff+0)
	ADDWFC      _buffer_pointer+1, 0 
	MOVWF       FSR0H 
	MOVF        POSTINC0+0, 0 
	XORLW       13
	BTFSC       STATUS+0, 2 
	GOTO        L__GSM_Msg_Display144
	MOVLW       _buff+0
	ADDWF       _buffer_pointer+0, 0 
	MOVWF       FSR0 
	MOVLW       hi_addr(_buff+0)
	ADDWFC      _buffer_pointer+1, 0 
	MOVWF       FSR0H 
	MOVF        POSTINC0+0, 0 
	XORLW       110
	BTFSC       STATUS+0, 2 
	GOTO        L__GSM_Msg_Display144
	GOTO        L_GSM_Msg_Display99
L__GSM_Msg_Display144:
;Master.c,601 :: 		buffer_pointer++;
	MOVLW       1
	ADDWF       _buffer_pointer+0, 0 
	MOVWF       R0 
	MOVLW       0
	ADDWFC      _buffer_pointer+1, 0 
	MOVWF       R1 
	MOVF        R0, 0 
	MOVWF       _buffer_pointer+0 
	MOVF        R1, 0 
	MOVWF       _buffer_pointer+1 
;Master.c,602 :: 		}
	GOTO        L_GSM_Msg_Display100
L_GSM_Msg_Display99:
;Master.c,604 :: 		break;
	GOTO        L_GSM_Msg_Display96
L_GSM_Msg_Display100:
;Master.c,605 :: 		}
	GOTO        L_GSM_Msg_Display95
L_GSM_Msg_Display96:
;Master.c,608 :: 		while(buff[buffer_pointer]!=',')
L_GSM_Msg_Display101:
	MOVLW       _buff+0
	ADDWF       _buffer_pointer+0, 0 
	MOVWF       FSR0 
	MOVLW       hi_addr(_buff+0)
	ADDWFC      _buffer_pointer+1, 0 
	MOVWF       FSR0H 
	MOVF        POSTINC0+0, 0 
	XORLW       44
	BTFSC       STATUS+0, 2 
	GOTO        L_GSM_Msg_Display102
;Master.c,610 :: 		buffer_pointer++;
	MOVLW       1
	ADDWF       _buffer_pointer+0, 0 
	MOVWF       R0 
	MOVLW       0
	ADDWFC      _buffer_pointer+1, 0 
	MOVWF       R1 
	MOVF        R0, 0 
	MOVWF       _buffer_pointer+0 
	MOVF        R1, 0 
	MOVWF       _buffer_pointer+1 
;Master.c,611 :: 		}
	GOTO        L_GSM_Msg_Display101
L_GSM_Msg_Display102:
;Master.c,612 :: 		buffer_pointer = buffer_pointer+2;
	MOVLW       2
	ADDWF       _buffer_pointer+0, 1 
	MOVLW       0
	ADDWFC      _buffer_pointer+1, 1 
;Master.c,615 :: 		for(i=0;i<=12;i++)
	CLRF        GSM_Msg_Display_i_L0+0 
	CLRF        GSM_Msg_Display_i_L0+1 
L_GSM_Msg_Display103:
	MOVLW       128
	MOVWF       R0 
	MOVLW       128
	XORWF       GSM_Msg_Display_i_L0+1, 0 
	SUBWF       R0, 0 
	BTFSS       STATUS+0, 2 
	GOTO        L__GSM_Msg_Display173
	MOVF        GSM_Msg_Display_i_L0+0, 0 
	SUBLW       12
L__GSM_Msg_Display173:
	BTFSS       STATUS+0, 0 
	GOTO        L_GSM_Msg_Display104
;Master.c,617 :: 		Mobile_no[i] = buff[buffer_pointer];
	MOVLW       _Mobile_no+0
	ADDWF       GSM_Msg_Display_i_L0+0, 0 
	MOVWF       FSR1 
	MOVLW       hi_addr(_Mobile_no+0)
	ADDWFC      GSM_Msg_Display_i_L0+1, 0 
	MOVWF       FSR1H 
	MOVLW       _buff+0
	ADDWF       _buffer_pointer+0, 0 
	MOVWF       FSR0 
	MOVLW       hi_addr(_buff+0)
	ADDWFC      _buffer_pointer+1, 0 
	MOVWF       FSR0H 
	MOVF        POSTINC0+0, 0 
	MOVWF       POSTINC1+0 
;Master.c,618 :: 		buffer_pointer++;
	MOVLW       1
	ADDWF       _buffer_pointer+0, 0 
	MOVWF       R0 
	MOVLW       0
	ADDWFC      _buffer_pointer+1, 0 
	MOVWF       R1 
	MOVF        R0, 0 
	MOVWF       _buffer_pointer+0 
	MOVF        R1, 0 
	MOVWF       _buffer_pointer+1 
;Master.c,615 :: 		for(i=0;i<=12;i++)
	INFSNZ      GSM_Msg_Display_i_L0+0, 1 
	INCF        GSM_Msg_Display_i_L0+1, 1 
;Master.c,619 :: 		}
	GOTO        L_GSM_Msg_Display103
L_GSM_Msg_Display104:
;Master.c,621 :: 		do
L_GSM_Msg_Display106:
;Master.c,623 :: 		buffer_pointer++;
	MOVLW       1
	ADDWF       _buffer_pointer+0, 0 
	MOVWF       R0 
	MOVLW       0
	ADDWFC      _buffer_pointer+1, 0 
	MOVWF       R1 
	MOVF        R0, 0 
	MOVWF       _buffer_pointer+0 
	MOVF        R1, 0 
	MOVWF       _buffer_pointer+1 
;Master.c,624 :: 		}while(buff[buffer_pointer-1]!= '\n');
	MOVLW       1
	SUBWF       _buffer_pointer+0, 0 
	MOVWF       R0 
	MOVLW       0
	SUBWFB      _buffer_pointer+1, 0 
	MOVWF       R1 
	MOVLW       _buff+0
	ADDWF       R0, 0 
	MOVWF       FSR0 
	MOVLW       hi_addr(_buff+0)
	ADDWFC      R1, 0 
	MOVWF       FSR0H 
	MOVF        POSTINC0+0, 0 
	XORLW       10
	BTFSS       STATUS+0, 2 
	GOTO        L_GSM_Msg_Display106
;Master.c,626 :: 		LCD_Cmd(0xC0);
	MOVLW       192
	MOVWF       FARG_Lcd_Cmd_out_char+0 
	CALL        _Lcd_Cmd+0, 0
;Master.c,627 :: 		j=0;
	CLRF        GSM_Msg_Display_j_L0+0 
	CLRF        GSM_Msg_Display_j_L0+1 
;Master.c,630 :: 		while(buff[buffer_pointer]!= '\r' && j<31)
L_GSM_Msg_Display109:
	MOVLW       _buff+0
	ADDWF       _buffer_pointer+0, 0 
	MOVWF       FSR0 
	MOVLW       hi_addr(_buff+0)
	ADDWFC      _buffer_pointer+1, 0 
	MOVWF       FSR0H 
	MOVF        POSTINC0+0, 0 
	XORLW       13
	BTFSC       STATUS+0, 2 
	GOTO        L_GSM_Msg_Display110
	MOVLW       128
	XORWF       GSM_Msg_Display_j_L0+1, 0 
	MOVWF       R0 
	MOVLW       128
	SUBWF       R0, 0 
	BTFSS       STATUS+0, 2 
	GOTO        L__GSM_Msg_Display174
	MOVLW       31
	SUBWF       GSM_Msg_Display_j_L0+0, 0 
L__GSM_Msg_Display174:
	BTFSC       STATUS+0, 0 
	GOTO        L_GSM_Msg_Display110
L__GSM_Msg_Display143:
;Master.c,632 :: 		Lcd_Chr_CP(buff[buffer_pointer]);
	MOVLW       _buff+0
	ADDWF       _buffer_pointer+0, 0 
	MOVWF       FSR0 
	MOVLW       hi_addr(_buff+0)
	ADDWFC      _buffer_pointer+1, 0 
	MOVWF       FSR0H 
	MOVF        POSTINC0+0, 0 
	MOVWF       FARG_Lcd_Chr_CP_out_char+0 
	CALL        _Lcd_Chr_CP+0, 0
;Master.c,633 :: 		message_received[j]=buff[buffer_pointer];
	MOVLW       _message_received+0
	ADDWF       GSM_Msg_Display_j_L0+0, 0 
	MOVWF       FSR1 
	MOVLW       hi_addr(_message_received+0)
	ADDWFC      GSM_Msg_Display_j_L0+1, 0 
	MOVWF       FSR1H 
	MOVLW       _buff+0
	ADDWF       _buffer_pointer+0, 0 
	MOVWF       FSR0 
	MOVLW       hi_addr(_buff+0)
	ADDWFC      _buffer_pointer+1, 0 
	MOVWF       FSR0H 
	MOVF        POSTINC0+0, 0 
	MOVWF       POSTINC1+0 
;Master.c,635 :: 		buffer_pointer++;
	MOVLW       1
	ADDWF       _buffer_pointer+0, 0 
	MOVWF       R0 
	MOVLW       0
	ADDWFC      _buffer_pointer+1, 0 
	MOVWF       R1 
	MOVF        R0, 0 
	MOVWF       _buffer_pointer+0 
	MOVF        R1, 0 
	MOVWF       _buffer_pointer+1 
;Master.c,636 :: 		j++;
	INFSNZ      GSM_Msg_Display_j_L0+0, 1 
	INCF        GSM_Msg_Display_j_L0+1, 1 
;Master.c,637 :: 		if(j==16)
	MOVLW       0
	XORWF       GSM_Msg_Display_j_L0+1, 0 
	BTFSS       STATUS+0, 2 
	GOTO        L__GSM_Msg_Display175
	MOVLW       16
	XORWF       GSM_Msg_Display_j_L0+0, 0 
L__GSM_Msg_Display175:
	BTFSS       STATUS+0, 2 
	GOTO        L_GSM_Msg_Display113
;Master.c,638 :: 		LCD_Cmd(0x80); /* display on 1st line */
	MOVLW       128
	MOVWF       FARG_Lcd_Cmd_out_char+0 
	CALL        _Lcd_Cmd+0, 0
L_GSM_Msg_Display113:
;Master.c,639 :: 		}
	GOTO        L_GSM_Msg_Display109
L_GSM_Msg_Display110:
;Master.c,641 :: 		buffer_pointer = 0;
	CLRF        _buffer_pointer+0 
	CLRF        _buffer_pointer+1 
;Master.c,642 :: 		memset(buff,0,strlen(buff));
	MOVLW       _buff+0
	MOVWF       FARG_strlen_s+0 
	MOVLW       hi_addr(_buff+0)
	MOVWF       FARG_strlen_s+1 
	CALL        _strlen+0, 0
	MOVF        R0, 0 
	MOVWF       FARG_memset_n+0 
	MOVF        R1, 0 
	MOVWF       FARG_memset_n+1 
	MOVLW       _buff+0
	MOVWF       FARG_memset_p1+0 
	MOVLW       hi_addr(_buff+0)
	MOVWF       FARG_memset_p1+1 
	CLRF        FARG_memset_character+0 
	CALL        _memset+0, 0
;Master.c,643 :: 		}
L_GSM_Msg_Display94:
;Master.c,644 :: 		status_flag = 0;
	CLRF        _status_flag+0 
;Master.c,645 :: 		}
L_end_GSM_Msg_Display:
	RETURN      0
; end of _GSM_Msg_Display

_AM2302_Read:

;Master.c,649 :: 		char AM2302_Read(unsigned *humidity, unsigned *temperature) {
;Master.c,650 :: 		char i = 0, j = 1;
	CLRF        AM2302_Read_i_L0+0 
	MOVLW       1
	MOVWF       AM2302_Read_j_L0+0 
	CLRF        AM2302_Read_timeout_L0+0 
;Master.c,653 :: 		AM2302_Bus_Out = 0;
	BCF         LATA0_bit+0, BitPos(LATA0_bit+0) 
;Master.c,655 :: 		AM2302_Bus_Direction = 1;                         //Set AM2302_Bus as input
	BSF         TRISA0_bit+0, BitPos(TRISA0_bit+0) 
;Master.c,656 :: 		AM2302_Bus_Direction = 0;                         //Set AM2302_Bus as output
	BCF         TRISA0_bit+0, BitPos(TRISA0_bit+0) 
;Master.c,657 :: 		AM2302_Bus_Out = 0;                               //Host the start signal down time min: 0.8ms, typ: 1ms, max: 20ms
	BCF         LATA0_bit+0, BitPos(LATA0_bit+0) 
;Master.c,658 :: 		Delay_ms(18);
	MOVLW       94
	MOVWF       R12, 0
	MOVLW       128
	MOVWF       R13, 0
L_AM2302_Read114:
	DECFSZ      R13, 1, 1
	BRA         L_AM2302_Read114
	DECFSZ      R12, 1, 1
	BRA         L_AM2302_Read114
	NOP
;Master.c,659 :: 		AM2302_Bus_Out = 1;                               //Set AM2302_Bus HIGH
	BSF         LATA0_bit+0, BitPos(LATA0_bit+0) 
;Master.c,660 :: 		Delay_us(20);                                       //Delay 20us
	MOVLW       26
	MOVWF       R13, 0
L_AM2302_Read115:
	DECFSZ      R13, 1, 1
	BRA         L_AM2302_Read115
	NOP
;Master.c,661 :: 		AM2302_Bus_Direction = 1;                         //Set AM2302_Bus as input
	BSF         TRISA0_bit+0, BitPos(TRISA0_bit+0) 
;Master.c,664 :: 		timeout = 30;
	MOVLW       30
	MOVWF       AM2302_Read_timeout_L0+0 
;Master.c,665 :: 		while (AM2302_Bus_In == 1) {
L_AM2302_Read116:
	BTFSS       RA0_bit+0, BitPos(RA0_bit+0) 
	GOTO        L_AM2302_Read117
;Master.c,666 :: 		Delay_us(1);
	NOP
	NOP
	NOP
	NOP
;Master.c,667 :: 		if (!timeout--) {
	MOVF        AM2302_Read_timeout_L0+0, 0 
	MOVWF       R0 
	DECF        AM2302_Read_timeout_L0+0, 1 
	MOVF        R0, 1 
	BTFSS       STATUS+0, 2 
	GOTO        L_AM2302_Read118
;Master.c,668 :: 		return 1;
	MOVLW       1
	MOVWF       R0 
	GOTO        L_end_AM2302_Read
;Master.c,669 :: 		} //ERROR: Sensor not responding
L_AM2302_Read118:
;Master.c,670 :: 		}
	GOTO        L_AM2302_Read116
L_AM2302_Read117:
;Master.c,673 :: 		while (!AM2302_Bus_In) { //response to low time
L_AM2302_Read119:
	BTFSC       RA0_bit+0, BitPos(RA0_bit+0) 
	GOTO        L_AM2302_Read120
;Master.c,675 :: 		}
	GOTO        L_AM2302_Read119
L_AM2302_Read120:
;Master.c,677 :: 		while (AM2302_Bus_In) {  //response to high time
L_AM2302_Read121:
	BTFSS       RA0_bit+0, BitPos(RA0_bit+0) 
	GOTO        L_AM2302_Read122
;Master.c,679 :: 		}
	GOTO        L_AM2302_Read121
L_AM2302_Read122:
;Master.c,688 :: 		i = 0; //get 5 byte
	CLRF        AM2302_Read_i_L0+0 
;Master.c,689 :: 		for (i = 0; i < 5; i++) {
	CLRF        AM2302_Read_i_L0+0 
L_AM2302_Read123:
	MOVLW       5
	SUBWF       AM2302_Read_i_L0+0, 0 
	BTFSC       STATUS+0, 0 
	GOTO        L_AM2302_Read124
;Master.c,690 :: 		j = 1;
	MOVLW       1
	MOVWF       AM2302_Read_j_L0+0 
;Master.c,691 :: 		for (j = 1; j <= 8; j++) { //get 8 bits from sensor
	MOVLW       1
	MOVWF       AM2302_Read_j_L0+0 
L_AM2302_Read126:
	MOVF        AM2302_Read_j_L0+0, 0 
	SUBLW       8
	BTFSS       STATUS+0, 0 
	GOTO        L_AM2302_Read127
;Master.c,692 :: 		while (!AM2302_Bus_In) { //signal "0", "1" low time
L_AM2302_Read129:
	BTFSC       RA0_bit+0, BitPos(RA0_bit+0) 
	GOTO        L_AM2302_Read130
;Master.c,693 :: 		Delay_us(1);
	NOP
	NOP
	NOP
	NOP
;Master.c,694 :: 		}
	GOTO        L_AM2302_Read129
L_AM2302_Read130:
;Master.c,695 :: 		Delay_us(30);
	MOVLW       39
	MOVWF       R13, 0
L_AM2302_Read131:
	DECFSZ      R13, 1, 1
	BRA         L_AM2302_Read131
	NOP
	NOP
;Master.c,696 :: 		sensor_byte <<= 1;       //add new lower byte
	RLCF        R3, 1 
	BCF         R3, 0 
;Master.c,697 :: 		if (AM2302_Bus_In) {     //if sda high after 30us => bit=1 else bit=0
	BTFSS       RA0_bit+0, BitPos(RA0_bit+0) 
	GOTO        L_AM2302_Read132
;Master.c,698 :: 		sensor_byte |= 1;
	BSF         R3, 0 
;Master.c,699 :: 		delay_us(45);
	MOVLW       59
	MOVWF       R13, 0
L_AM2302_Read133:
	DECFSZ      R13, 1, 1
	BRA         L_AM2302_Read133
	NOP
	NOP
;Master.c,700 :: 		while (AM2302_Bus_In) {
L_AM2302_Read134:
	BTFSS       RA0_bit+0, BitPos(RA0_bit+0) 
	GOTO        L_AM2302_Read135
;Master.c,701 :: 		Delay_us(1);
	NOP
	NOP
	NOP
	NOP
;Master.c,702 :: 		}
	GOTO        L_AM2302_Read134
L_AM2302_Read135:
;Master.c,703 :: 		}
L_AM2302_Read132:
;Master.c,691 :: 		for (j = 1; j <= 8; j++) { //get 8 bits from sensor
	INCF        AM2302_Read_j_L0+0, 1 
;Master.c,704 :: 		}
	GOTO        L_AM2302_Read126
L_AM2302_Read127:
;Master.c,705 :: 		AM2302_Data[i] = sensor_byte;
	MOVLW       _AM2302_Data+0
	MOVWF       FSR1 
	MOVLW       hi_addr(_AM2302_Data+0)
	MOVWF       FSR1H 
	MOVF        AM2302_Read_i_L0+0, 0 
	ADDWF       FSR1, 1 
	BTFSC       STATUS+0, 0 
	INCF        FSR1H, 1 
	MOVF        R3, 0 
	MOVWF       POSTINC1+0 
;Master.c,689 :: 		for (i = 0; i < 5; i++) {
	INCF        AM2302_Read_i_L0+0, 1 
;Master.c,706 :: 		}
	GOTO        L_AM2302_Read123
L_AM2302_Read124:
;Master.c,708 :: 		*humidity = (AM2302_Data[0] << 8) + AM2302_Data[1];
	MOVF        _AM2302_Data+0, 0 
	MOVWF       R1 
	CLRF        R0 
	MOVF        _AM2302_Data+1, 0 
	ADDWF       R0, 1 
	MOVLW       0
	ADDWFC      R1, 1 
	MOVFF       FARG_AM2302_Read_humidity+0, FSR1
	MOVFF       FARG_AM2302_Read_humidity+1, FSR1H
	MOVF        R0, 0 
	MOVWF       POSTINC1+0 
	MOVF        R1, 0 
	MOVWF       POSTINC1+0 
;Master.c,709 :: 		*temperature = (AM2302_Data[2] << 8) + AM2302_Data[3];
	MOVF        _AM2302_Data+2, 0 
	MOVWF       R1 
	CLRF        R0 
	MOVF        _AM2302_Data+3, 0 
	ADDWF       R0, 1 
	MOVLW       0
	ADDWFC      R1, 1 
	MOVFF       FARG_AM2302_Read_temperature+0, FSR1
	MOVFF       FARG_AM2302_Read_temperature+1, FSR1H
	MOVF        R0, 0 
	MOVWF       POSTINC1+0 
	MOVF        R1, 0 
	MOVWF       POSTINC1+0 
;Master.c,711 :: 		return 0;
	CLRF        R0 
;Master.c,712 :: 		}
L_end_AM2302_Read:
	RETURN      0
; end of _AM2302_Read

_processValue:

;Master.c,715 :: 		void processValue(unsigned humidity, unsigned temperature) {
;Master.c,716 :: 		if(humidity>=1000)  Lcd_Chr(2,7,(humidity/1000) +48);
	MOVLW       3
	SUBWF       FARG_processValue_humidity+1, 0 
	BTFSS       STATUS+0, 2 
	GOTO        L__processValue178
	MOVLW       232
	SUBWF       FARG_processValue_humidity+0, 0 
L__processValue178:
	BTFSS       STATUS+0, 0 
	GOTO        L_processValue136
	MOVLW       2
	MOVWF       FARG_Lcd_Chr_row+0 
	MOVLW       7
	MOVWF       FARG_Lcd_Chr_column+0 
	MOVLW       232
	MOVWF       R4 
	MOVLW       3
	MOVWF       R5 
	MOVF        FARG_processValue_humidity+0, 0 
	MOVWF       R0 
	MOVF        FARG_processValue_humidity+1, 0 
	MOVWF       R1 
	CALL        _Div_16X16_U+0, 0
	MOVLW       48
	ADDWF       R0, 0 
	MOVWF       FARG_Lcd_Chr_out_char+0 
	CALL        _Lcd_Chr+0, 0
	GOTO        L_processValue137
L_processValue136:
;Master.c,717 :: 		else  Lcd_Out(2,7," ");
	MOVLW       2
	MOVWF       FARG_Lcd_Out_row+0 
	MOVLW       7
	MOVWF       FARG_Lcd_Out_column+0 
	MOVLW       ?lstr69_Master+0
	MOVWF       FARG_Lcd_Out_text+0 
	MOVLW       hi_addr(?lstr69_Master+0)
	MOVWF       FARG_Lcd_Out_text+1 
	CALL        _Lcd_Out+0, 0
L_processValue137:
;Master.c,718 :: 		txt3[0]= humidity/100%10 +48;
	MOVLW       100
	MOVWF       R4 
	MOVLW       0
	MOVWF       R5 
	MOVF        FARG_processValue_humidity+0, 0 
	MOVWF       R0 
	MOVF        FARG_processValue_humidity+1, 0 
	MOVWF       R1 
	CALL        _Div_16X16_U+0, 0
	MOVLW       10
	MOVWF       R4 
	MOVLW       0
	MOVWF       R5 
	CALL        _Div_16X16_U+0, 0
	MOVF        R8, 0 
	MOVWF       R0 
	MOVF        R9, 0 
	MOVWF       R1 
	MOVLW       48
	ADDWF       R0, 0 
	MOVWF       _txt3+0 
;Master.c,719 :: 		txt3[1]= (humidity/10)%10 +48;
	MOVLW       10
	MOVWF       R4 
	MOVLW       0
	MOVWF       R5 
	MOVF        FARG_processValue_humidity+0, 0 
	MOVWF       R0 
	MOVF        FARG_processValue_humidity+1, 0 
	MOVWF       R1 
	CALL        _Div_16X16_U+0, 0
	MOVLW       10
	MOVWF       R4 
	MOVLW       0
	MOVWF       R5 
	CALL        _Div_16X16_U+0, 0
	MOVF        R8, 0 
	MOVWF       R0 
	MOVF        R9, 0 
	MOVWF       R1 
	MOVLW       48
	ADDWF       R0, 0 
	MOVWF       _txt3+1 
;Master.c,720 :: 		txt3[3]= humidity%10 +48;
	MOVLW       10
	MOVWF       R4 
	MOVLW       0
	MOVWF       R5 
	MOVF        FARG_processValue_humidity+0, 0 
	MOVWF       R0 
	MOVF        FARG_processValue_humidity+1, 0 
	MOVWF       R1 
	CALL        _Div_16X16_U+0, 0
	MOVF        R8, 0 
	MOVWF       R0 
	MOVF        R9, 0 
	MOVWF       R1 
	MOVLW       48
	ADDWF       R0, 0 
	MOVWF       _txt3+3 
;Master.c,721 :: 		Lcd_Out(2,1,"HUMI1:");
	MOVLW       2
	MOVWF       FARG_Lcd_Out_row+0 
	MOVLW       1
	MOVWF       FARG_Lcd_Out_column+0 
	MOVLW       ?lstr70_Master+0
	MOVWF       FARG_Lcd_Out_text+0 
	MOVLW       hi_addr(?lstr70_Master+0)
	MOVWF       FARG_Lcd_Out_text+1 
	CALL        _Lcd_Out+0, 0
;Master.c,722 :: 		Lcd_Out(2,8,txt3);
	MOVLW       2
	MOVWF       FARG_Lcd_Out_row+0 
	MOVLW       8
	MOVWF       FARG_Lcd_Out_column+0 
	MOVLW       _txt3+0
	MOVWF       FARG_Lcd_Out_text+0 
	MOVLW       hi_addr(_txt3+0)
	MOVWF       FARG_Lcd_Out_text+1 
	CALL        _Lcd_Out+0, 0
;Master.c,723 :: 		Lcd_Chr(2,13,0x25);
	MOVLW       2
	MOVWF       FARG_Lcd_Chr_row+0 
	MOVLW       13
	MOVWF       FARG_Lcd_Chr_column+0 
	MOVLW       37
	MOVWF       FARG_Lcd_Chr_out_char+0 
	CALL        _Lcd_Chr+0, 0
;Master.c,725 :: 		if(temperature&0x8000) Lcd_Out(1,7,"-");
	BTFSS       FARG_processValue_temperature+1, 7 
	GOTO        L_processValue138
	MOVLW       1
	MOVWF       FARG_Lcd_Out_row+0 
	MOVLW       7
	MOVWF       FARG_Lcd_Out_column+0 
	MOVLW       ?lstr71_Master+0
	MOVWF       FARG_Lcd_Out_text+0 
	MOVLW       hi_addr(?lstr71_Master+0)
	MOVWF       FARG_Lcd_Out_text+1 
	CALL        _Lcd_Out+0, 0
	GOTO        L_processValue139
L_processValue138:
;Master.c,726 :: 		else  Lcd_Out(1,7," ");
	MOVLW       1
	MOVWF       FARG_Lcd_Out_row+0 
	MOVLW       7
	MOVWF       FARG_Lcd_Out_column+0 
	MOVLW       ?lstr72_Master+0
	MOVWF       FARG_Lcd_Out_text+0 
	MOVLW       hi_addr(?lstr72_Master+0)
	MOVWF       FARG_Lcd_Out_text+1 
	CALL        _Lcd_Out+0, 0
L_processValue139:
;Master.c,727 :: 		temperature&=0x7FFF;
	MOVLW       255
	ANDWF       FARG_processValue_temperature+0, 0 
	MOVWF       FLOC__processValue+0 
	MOVF        FARG_processValue_temperature+1, 0 
	ANDLW       127
	MOVWF       FLOC__processValue+1 
	MOVF        FLOC__processValue+0, 0 
	MOVWF       FARG_processValue_temperature+0 
	MOVF        FLOC__processValue+1, 0 
	MOVWF       FARG_processValue_temperature+1 
;Master.c,728 :: 		txt2[0]= temperature/100 +48;
	MOVLW       100
	MOVWF       R4 
	MOVLW       0
	MOVWF       R5 
	MOVF        FLOC__processValue+0, 0 
	MOVWF       R0 
	MOVF        FLOC__processValue+1, 0 
	MOVWF       R1 
	CALL        _Div_16X16_U+0, 0
	MOVLW       48
	ADDWF       R0, 0 
	MOVWF       _txt2+0 
;Master.c,729 :: 		txt2[1]= (temperature/10)%10 +48;
	MOVLW       10
	MOVWF       R4 
	MOVLW       0
	MOVWF       R5 
	MOVF        FLOC__processValue+0, 0 
	MOVWF       R0 
	MOVF        FLOC__processValue+1, 0 
	MOVWF       R1 
	CALL        _Div_16X16_U+0, 0
	MOVLW       10
	MOVWF       R4 
	MOVLW       0
	MOVWF       R5 
	CALL        _Div_16X16_U+0, 0
	MOVF        R8, 0 
	MOVWF       R0 
	MOVF        R9, 0 
	MOVWF       R1 
	MOVLW       48
	ADDWF       R0, 0 
	MOVWF       _txt2+1 
;Master.c,730 :: 		txt2[3]= temperature%10 +48;
	MOVLW       10
	MOVWF       R4 
	MOVLW       0
	MOVWF       R5 
	MOVF        FLOC__processValue+0, 0 
	MOVWF       R0 
	MOVF        FLOC__processValue+1, 0 
	MOVWF       R1 
	CALL        _Div_16X16_U+0, 0
	MOVF        R8, 0 
	MOVWF       R0 
	MOVF        R9, 0 
	MOVWF       R1 
	MOVLW       48
	ADDWF       R0, 0 
	MOVWF       _txt2+3 
;Master.c,731 :: 		Lcd_Out(1,1,"TEMP1:");
	MOVLW       1
	MOVWF       FARG_Lcd_Out_row+0 
	MOVLW       1
	MOVWF       FARG_Lcd_Out_column+0 
	MOVLW       ?lstr73_Master+0
	MOVWF       FARG_Lcd_Out_text+0 
	MOVLW       hi_addr(?lstr73_Master+0)
	MOVWF       FARG_Lcd_Out_text+1 
	CALL        _Lcd_Out+0, 0
;Master.c,732 :: 		Lcd_Out(1,8,txt2);
	MOVLW       1
	MOVWF       FARG_Lcd_Out_row+0 
	MOVLW       8
	MOVWF       FARG_Lcd_Out_column+0 
	MOVLW       _txt2+0
	MOVWF       FARG_Lcd_Out_text+0 
	MOVLW       hi_addr(_txt2+0)
	MOVWF       FARG_Lcd_Out_text+1 
	CALL        _Lcd_Out+0, 0
;Master.c,733 :: 		Lcd_Out_CP(" C");
	MOVLW       ?lstr74_Master+0
	MOVWF       FARG_Lcd_Out_CP_text+0 
	MOVLW       hi_addr(?lstr74_Master+0)
	MOVWF       FARG_Lcd_Out_CP_text+1 
	CALL        _Lcd_Out_CP+0, 0
;Master.c,734 :: 		}
L_end_processValue:
	RETURN      0
; end of _processValue

_Display_Init:

;Master.c,737 :: 		void Display_Init(){
;Master.c,738 :: 		LCD_Init();
	CALL        _Lcd_Init+0, 0
;Master.c,739 :: 		LCD_Cmd(_LCD_CLEAR);
	MOVLW       1
	MOVWF       FARG_Lcd_Cmd_out_char+0 
	CALL        _Lcd_Cmd+0, 0
;Master.c,740 :: 		Lcd_Cmd(_LCD_CURSOR_OFF);
	MOVLW       12
	MOVWF       FARG_Lcd_Cmd_out_char+0 
	CALL        _Lcd_Cmd+0, 0
;Master.c,741 :: 		Lcd_Out(3,3,"VAN TUYEN");
	MOVLW       3
	MOVWF       FARG_Lcd_Out_row+0 
	MOVLW       3
	MOVWF       FARG_Lcd_Out_column+0 
	MOVLW       ?lstr75_Master+0
	MOVWF       FARG_Lcd_Out_text+0 
	MOVLW       hi_addr(?lstr75_Master+0)
	MOVWF       FARG_Lcd_Out_text+1 
	CALL        _Lcd_Out+0, 0
;Master.c,742 :: 		Lcd_Out(4,3,"  GTVT ");
	MOVLW       4
	MOVWF       FARG_Lcd_Out_row+0 
	MOVLW       3
	MOVWF       FARG_Lcd_Out_column+0 
	MOVLW       ?lstr76_Master+0
	MOVWF       FARG_Lcd_Out_text+0 
	MOVLW       hi_addr(?lstr76_Master+0)
	MOVWF       FARG_Lcd_Out_text+1 
	CALL        _Lcd_Out+0, 0
;Master.c,743 :: 		delay_ms(2000);
	MOVLW       41
	MOVWF       R11, 0
	MOVLW       150
	MOVWF       R12, 0
	MOVLW       127
	MOVWF       R13, 0
L_Display_Init140:
	DECFSZ      R13, 1, 1
	BRA         L_Display_Init140
	DECFSZ      R12, 1, 1
	BRA         L_Display_Init140
	DECFSZ      R11, 1, 1
	BRA         L_Display_Init140
;Master.c,744 :: 		}
L_end_Display_Init:
	RETURN      0
; end of _Display_Init
